ARM GAS  /tmp/cci0zBnS.s 			page 1


   1              		.cpu cortex-m7
   2              		.arch armv7e-m
   3              		.fpu fpv5-sp-d16
   4              		.eabi_attribute 27, 1
   5              		.eabi_attribute 28, 1
   6              		.eabi_attribute 20, 1
   7              		.eabi_attribute 21, 1
   8              		.eabi_attribute 23, 3
   9              		.eabi_attribute 24, 1
  10              		.eabi_attribute 25, 1
  11              		.eabi_attribute 26, 1
  12              		.eabi_attribute 30, 1
  13              		.eabi_attribute 34, 1
  14              		.eabi_attribute 18, 4
  15              		.file	"cocktail_it.c"
  16              		.text
  17              	.Ltext0:
  18              		.cfi_sections	.debug_frame
  19              		.section	.text.HAL_GPIO_EXTI_Callback,"ax",%progbits
  20              		.align	1
  21              		.global	HAL_GPIO_EXTI_Callback
  22              		.syntax unified
  23              		.thumb
  24              		.thumb_func
  26              	HAL_GPIO_EXTI_Callback:
  27              	.LVL0:
  28              	.LFB141:
  29              		.file 1 "fw-lib-stm32-CocktailOS/cocktail_it.c"
   1:fw-lib-stm32-CocktailOS/cocktail_it.c **** /**
   2:fw-lib-stm32-CocktailOS/cocktail_it.c ****  ******************************************************************************
   3:fw-lib-stm32-CocktailOS/cocktail_it.c ****  * @file    system_it.c
   4:fw-lib-stm32-CocktailOS/cocktail_it.c ****  * @author  Joochul, Chang
   5:fw-lib-stm32-CocktailOS/cocktail_it.c ****  * @brief   HAL interrupt callbacks merging file.
   6:fw-lib-stm32-CocktailOS/cocktail_it.c ****  ******************************************************************************
   7:fw-lib-stm32-CocktailOS/cocktail_it.c ****  * @verbatim
   8:fw-lib-stm32-CocktailOS/cocktail_it.c ****  *
   9:fw-lib-stm32-CocktailOS/cocktail_it.c ****  * Merge conflicting HAL interrupt callbacks here.
  10:fw-lib-stm32-CocktailOS/cocktail_it.c ****  * Conflicts may occur across modules or state machines.
  11:fw-lib-stm32-CocktailOS/cocktail_it.c ****  *
  12:fw-lib-stm32-CocktailOS/cocktail_it.c ****  * Example:
  13:fw-lib-stm32-CocktailOS/cocktail_it.c ****  *
  14:fw-lib-stm32-CocktailOS/cocktail_it.c ****  *  [module1_it.c]
  15:fw-lib-stm32-CocktailOS/cocktail_it.c ****  *      void MODULE1_GPIO_EXTI_Callback(uint16_t pin)
  16:fw-lib-stm32-CocktailOS/cocktail_it.c ****  *      {
  17:fw-lib-stm32-CocktailOS/cocktail_it.c ****  *          ...
  18:fw-lib-stm32-CocktailOS/cocktail_it.c ****  *      }
  19:fw-lib-stm32-CocktailOS/cocktail_it.c ****  *
  20:fw-lib-stm32-CocktailOS/cocktail_it.c ****  *      void HAL_GPIO_EXTI_Callback(uint16_t pin)
  21:fw-lib-stm32-CocktailOS/cocktail_it.c ****  *      {
  22:fw-lib-stm32-CocktailOS/cocktail_it.c ****  *          MODULE1_GPIO_EXTI_Callback(pin);
  23:fw-lib-stm32-CocktailOS/cocktail_it.c ****  *      }
  24:fw-lib-stm32-CocktailOS/cocktail_it.c ****  *
  25:fw-lib-stm32-CocktailOS/cocktail_it.c ****  *  [statemachine1_it.c]
  26:fw-lib-stm32-CocktailOS/cocktail_it.c ****  *     void SM1_GPIO_EXTI_Callback(uint16_t pin)
  27:fw-lib-stm32-CocktailOS/cocktail_it.c ****  *     {
  28:fw-lib-stm32-CocktailOS/cocktail_it.c ****  *          ...
  29:fw-lib-stm32-CocktailOS/cocktail_it.c ****  *      }
ARM GAS  /tmp/cci0zBnS.s 			page 2


  30:fw-lib-stm32-CocktailOS/cocktail_it.c ****  *
  31:fw-lib-stm32-CocktailOS/cocktail_it.c ****  *      void HAL_GPIO_EXTI_Callback(uint16_t pin)
  32:fw-lib-stm32-CocktailOS/cocktail_it.c ****  *      {
  33:fw-lib-stm32-CocktailOS/cocktail_it.c ****  *          SM1_GPIO_EXTI_Callback(pin);
  34:fw-lib-stm32-CocktailOS/cocktail_it.c ****  *      }
  35:fw-lib-stm32-CocktailOS/cocktail_it.c ****  *
  36:fw-lib-stm32-CocktailOS/cocktail_it.c ****  *  Both module1_it.c and statemachine1_it.c want to define same HAL interrupt
  37:fw-lib-stm32-CocktailOS/cocktail_it.c ****  *  callback function in example. To resolve the conflict, comment out and
  38:fw-lib-stm32-CocktailOS/cocktail_it.c ****  *  merge interrupt handlers here.
  39:fw-lib-stm32-CocktailOS/cocktail_it.c ****  *
  40:fw-lib-stm32-CocktailOS/cocktail_it.c ****  *  [module1_it.c] Comment HAL_GPIO_EXTI_Callback
  41:fw-lib-stm32-CocktailOS/cocktail_it.c ****  *  [statemachine1_it.c] Comment HAL_GPIO_EXTI_Callback
  42:fw-lib-stm32-CocktailOS/cocktail_it.c ****  *  [system_it.c]
  43:fw-lib-stm32-CocktailOS/cocktail_it.c ****  *      void HAL_GPIO_EXTI_Callback(uint16_t pin)
  44:fw-lib-stm32-CocktailOS/cocktail_it.c ****  *      {
  45:fw-lib-stm32-CocktailOS/cocktail_it.c ****  *          MODULE1_GPIO_EXTI_Callback(pin);
  46:fw-lib-stm32-CocktailOS/cocktail_it.c ****  *          SM1_GPIO_EXTI_Callback(pin);
  47:fw-lib-stm32-CocktailOS/cocktail_it.c ****  *      }
  48:fw-lib-stm32-CocktailOS/cocktail_it.c ****  * @endverbatim
  49:fw-lib-stm32-CocktailOS/cocktail_it.c ****  ******************************************************************************
  50:fw-lib-stm32-CocktailOS/cocktail_it.c ****  */
  51:fw-lib-stm32-CocktailOS/cocktail_it.c **** 
  52:fw-lib-stm32-CocktailOS/cocktail_it.c **** /* Merged HAL interrupt callbacks --------------------------------------------*/
  53:fw-lib-stm32-CocktailOS/cocktail_it.c **** #include "cocktail.h"
  54:fw-lib-stm32-CocktailOS/cocktail_it.c **** 
  55:fw-lib-stm32-CocktailOS/cocktail_it.c **** extern __IO System_HandleTypeDef hsys;
  56:fw-lib-stm32-CocktailOS/cocktail_it.c **** 
  57:fw-lib-stm32-CocktailOS/cocktail_it.c **** void
  58:fw-lib-stm32-CocktailOS/cocktail_it.c **** HAL_GPIO_EXTI_Callback(uint16_t GPIO_Pin)
  59:fw-lib-stm32-CocktailOS/cocktail_it.c **** {
  30              		.loc 1 59 1 view -0
  31              		.cfi_startproc
  32              		@ args = 0, pretend = 0, frame = 0
  33              		@ frame_needed = 0, uses_anonymous_args = 0
  34              		.loc 1 59 1 is_stmt 0 view .LVU1
  35 0000 38B5     		push	{r3, r4, r5, lr}
  36              	.LCFI0:
  37              		.cfi_def_cfa_offset 16
  38              		.cfi_offset 3, -16
  39              		.cfi_offset 4, -12
  40              		.cfi_offset 5, -8
  41              		.cfi_offset 14, -4
  42 0002 0546     		mov	r5, r0
  60:fw-lib-stm32-CocktailOS/cocktail_it.c ****     GPIO_EXTI_PCB *pcb;
  43              		.loc 1 60 5 is_stmt 1 view .LVU2
  61:fw-lib-stm32-CocktailOS/cocktail_it.c **** 
  62:fw-lib-stm32-CocktailOS/cocktail_it.c ****     for(pcb = hsys._extiPCB; pcb != NULL; pcb = pcb->next)
  44              		.loc 1 62 5 view .LVU3
  45              		.loc 1 62 13 is_stmt 0 view .LVU4
  46 0004 064B     		ldr	r3, .L8
  47 0006 5C68     		ldr	r4, [r3, #4]
  48              	.LVL1:
  49              		.loc 1 62 5 view .LVU5
  50 0008 03E0     		b	.L2
  51              	.LVL2:
  52              	.L7:
  63:fw-lib-stm32-CocktailOS/cocktail_it.c ****         if(pcb->_exti_fn != NULL) pcb->_exti_fn(NULL, GPIO_Pin);
ARM GAS  /tmp/cci0zBnS.s 			page 3


  53              		.loc 1 63 35 is_stmt 1 discriminator 1 view .LVU6
  54 000a 2946     		mov	r1, r5
  55 000c 0020     		movs	r0, #0
  56 000e 9847     		blx	r3
  57              	.LVL3:
  58              	.L3:
  62:fw-lib-stm32-CocktailOS/cocktail_it.c ****         if(pcb->_exti_fn != NULL) pcb->_exti_fn(NULL, GPIO_Pin);
  59              		.loc 1 62 43 discriminator 2 view .LVU7
  62:fw-lib-stm32-CocktailOS/cocktail_it.c ****         if(pcb->_exti_fn != NULL) pcb->_exti_fn(NULL, GPIO_Pin);
  60              		.loc 1 62 47 is_stmt 0 discriminator 2 view .LVU8
  61 0010 6468     		ldr	r4, [r4, #4]
  62              	.LVL4:
  63              	.L2:
  62:fw-lib-stm32-CocktailOS/cocktail_it.c ****         if(pcb->_exti_fn != NULL) pcb->_exti_fn(NULL, GPIO_Pin);
  64              		.loc 1 62 30 is_stmt 1 discriminator 1 view .LVU9
  62:fw-lib-stm32-CocktailOS/cocktail_it.c ****         if(pcb->_exti_fn != NULL) pcb->_exti_fn(NULL, GPIO_Pin);
  65              		.loc 1 62 5 is_stmt 0 discriminator 1 view .LVU10
  66 0012 1CB1     		cbz	r4, .L6
  67              		.loc 1 63 9 is_stmt 1 view .LVU11
  68              		.loc 1 63 15 is_stmt 0 view .LVU12
  69 0014 2368     		ldr	r3, [r4]
  70              		.loc 1 63 11 view .LVU13
  71 0016 002B     		cmp	r3, #0
  72 0018 F7D1     		bne	.L7
  73 001a F9E7     		b	.L3
  74              	.L6:
  64:fw-lib-stm32-CocktailOS/cocktail_it.c **** }
  75              		.loc 1 64 1 view .LVU14
  76 001c 38BD     		pop	{r3, r4, r5, pc}
  77              	.LVL5:
  78              	.L9:
  79              		.loc 1 64 1 view .LVU15
  80 001e 00BF     		.align	2
  81              	.L8:
  82 0020 00000000 		.word	hsys
  83              		.cfi_endproc
  84              	.LFE141:
  86              		.section	.text.HAL_TIM_PWM_PulseFinishedCallback,"ax",%progbits
  87              		.align	1
  88              		.global	HAL_TIM_PWM_PulseFinishedCallback
  89              		.syntax unified
  90              		.thumb
  91              		.thumb_func
  93              	HAL_TIM_PWM_PulseFinishedCallback:
  94              	.LVL6:
  95              	.LFB142:
  65:fw-lib-stm32-CocktailOS/cocktail_it.c **** 
  66:fw-lib-stm32-CocktailOS/cocktail_it.c **** #ifdef HAL_TIM_MODULE_ENABLED
  67:fw-lib-stm32-CocktailOS/cocktail_it.c **** void
  68:fw-lib-stm32-CocktailOS/cocktail_it.c **** HAL_TIM_PWM_PulseFinishedCallback(TIM_HandleTypeDef *htim)
  69:fw-lib-stm32-CocktailOS/cocktail_it.c **** {
  96              		.loc 1 69 1 is_stmt 1 view -0
  97              		.cfi_startproc
  98              		@ args = 0, pretend = 0, frame = 0
  99              		@ frame_needed = 0, uses_anonymous_args = 0
 100              		.loc 1 69 1 is_stmt 0 view .LVU17
 101 0000 38B5     		push	{r3, r4, r5, lr}
ARM GAS  /tmp/cci0zBnS.s 			page 4


 102              	.LCFI1:
 103              		.cfi_def_cfa_offset 16
 104              		.cfi_offset 3, -16
 105              		.cfi_offset 4, -12
 106              		.cfi_offset 5, -8
 107              		.cfi_offset 14, -4
 108 0002 0546     		mov	r5, r0
  70:fw-lib-stm32-CocktailOS/cocktail_it.c ****     PWM_PCB *pcb;
 109              		.loc 1 70 5 is_stmt 1 view .LVU18
  71:fw-lib-stm32-CocktailOS/cocktail_it.c **** 
  72:fw-lib-stm32-CocktailOS/cocktail_it.c ****     for(pcb = hsys._pwmPCB; pcb != NULL; pcb = pcb->next)
 110              		.loc 1 72 5 view .LVU19
 111              		.loc 1 72 13 is_stmt 0 view .LVU20
 112 0004 064B     		ldr	r3, .L17
 113 0006 9C68     		ldr	r4, [r3, #8]
 114              	.LVL7:
 115              		.loc 1 72 5 view .LVU21
 116 0008 03E0     		b	.L11
 117              	.LVL8:
 118              	.L16:
  73:fw-lib-stm32-CocktailOS/cocktail_it.c ****         if(pcb->_pwm_fn != NULL) pcb->_pwm_fn(NULL, htim);
 119              		.loc 1 73 34 is_stmt 1 discriminator 1 view .LVU22
 120 000a 2946     		mov	r1, r5
 121 000c 0020     		movs	r0, #0
 122 000e 9847     		blx	r3
 123              	.LVL9:
 124              	.L12:
  72:fw-lib-stm32-CocktailOS/cocktail_it.c ****         if(pcb->_pwm_fn != NULL) pcb->_pwm_fn(NULL, htim);
 125              		.loc 1 72 42 discriminator 2 view .LVU23
  72:fw-lib-stm32-CocktailOS/cocktail_it.c ****         if(pcb->_pwm_fn != NULL) pcb->_pwm_fn(NULL, htim);
 126              		.loc 1 72 46 is_stmt 0 discriminator 2 view .LVU24
 127 0010 6468     		ldr	r4, [r4, #4]
 128              	.LVL10:
 129              	.L11:
  72:fw-lib-stm32-CocktailOS/cocktail_it.c ****         if(pcb->_pwm_fn != NULL) pcb->_pwm_fn(NULL, htim);
 130              		.loc 1 72 29 is_stmt 1 discriminator 1 view .LVU25
  72:fw-lib-stm32-CocktailOS/cocktail_it.c ****         if(pcb->_pwm_fn != NULL) pcb->_pwm_fn(NULL, htim);
 131              		.loc 1 72 5 is_stmt 0 discriminator 1 view .LVU26
 132 0012 1CB1     		cbz	r4, .L15
 133              		.loc 1 73 9 is_stmt 1 view .LVU27
 134              		.loc 1 73 15 is_stmt 0 view .LVU28
 135 0014 2368     		ldr	r3, [r4]
 136              		.loc 1 73 11 view .LVU29
 137 0016 002B     		cmp	r3, #0
 138 0018 F7D1     		bne	.L16
 139 001a F9E7     		b	.L12
 140              	.L15:
  74:fw-lib-stm32-CocktailOS/cocktail_it.c **** }
 141              		.loc 1 74 1 view .LVU30
 142 001c 38BD     		pop	{r3, r4, r5, pc}
 143              	.LVL11:
 144              	.L18:
 145              		.loc 1 74 1 view .LVU31
 146 001e 00BF     		.align	2
 147              	.L17:
 148 0020 00000000 		.word	hsys
 149              		.cfi_endproc
ARM GAS  /tmp/cci0zBnS.s 			page 5


 150              	.LFE142:
 152              		.section	.text.HAL_TIM_PeriodElapsedCallback,"ax",%progbits
 153              		.align	1
 154              		.global	HAL_TIM_PeriodElapsedCallback
 155              		.syntax unified
 156              		.thumb
 157              		.thumb_func
 159              	HAL_TIM_PeriodElapsedCallback:
 160              	.LVL12:
 161              	.LFB143:
  75:fw-lib-stm32-CocktailOS/cocktail_it.c **** 
  76:fw-lib-stm32-CocktailOS/cocktail_it.c **** void
  77:fw-lib-stm32-CocktailOS/cocktail_it.c **** HAL_TIM_PeriodElapsedCallback(TIM_HandleTypeDef *htim)
  78:fw-lib-stm32-CocktailOS/cocktail_it.c **** {
 162              		.loc 1 78 1 is_stmt 1 view -0
 163              		.cfi_startproc
 164              		@ args = 0, pretend = 0, frame = 0
 165              		@ frame_needed = 0, uses_anonymous_args = 0
 166              		.loc 1 78 1 is_stmt 0 view .LVU33
 167 0000 38B5     		push	{r3, r4, r5, lr}
 168              	.LCFI2:
 169              		.cfi_def_cfa_offset 16
 170              		.cfi_offset 3, -16
 171              		.cfi_offset 4, -12
 172              		.cfi_offset 5, -8
 173              		.cfi_offset 14, -4
 174 0002 0546     		mov	r5, r0
  79:fw-lib-stm32-CocktailOS/cocktail_it.c ****     TIM_PCB *pcb;
 175              		.loc 1 79 5 is_stmt 1 view .LVU34
  80:fw-lib-stm32-CocktailOS/cocktail_it.c ****     for(pcb = hsys._timPCB; pcb != NULL; pcb = pcb->next)
 176              		.loc 1 80 5 view .LVU35
 177              		.loc 1 80 13 is_stmt 0 view .LVU36
 178 0004 064B     		ldr	r3, .L26
 179 0006 DC68     		ldr	r4, [r3, #12]
 180              	.LVL13:
 181              		.loc 1 80 5 view .LVU37
 182 0008 03E0     		b	.L20
 183              	.LVL14:
 184              	.L25:
  81:fw-lib-stm32-CocktailOS/cocktail_it.c ****         if(pcb->_tim_fn != NULL) pcb->_tim_fn(NULL, htim);
 185              		.loc 1 81 34 is_stmt 1 discriminator 1 view .LVU38
 186 000a 2946     		mov	r1, r5
 187 000c 0020     		movs	r0, #0
 188 000e 9847     		blx	r3
 189              	.LVL15:
 190              	.L21:
  80:fw-lib-stm32-CocktailOS/cocktail_it.c ****     for(pcb = hsys._timPCB; pcb != NULL; pcb = pcb->next)
 191              		.loc 1 80 42 discriminator 2 view .LVU39
  80:fw-lib-stm32-CocktailOS/cocktail_it.c ****     for(pcb = hsys._timPCB; pcb != NULL; pcb = pcb->next)
 192              		.loc 1 80 46 is_stmt 0 discriminator 2 view .LVU40
 193 0010 6468     		ldr	r4, [r4, #4]
 194              	.LVL16:
 195              	.L20:
  80:fw-lib-stm32-CocktailOS/cocktail_it.c ****     for(pcb = hsys._timPCB; pcb != NULL; pcb = pcb->next)
 196              		.loc 1 80 29 is_stmt 1 discriminator 1 view .LVU41
  80:fw-lib-stm32-CocktailOS/cocktail_it.c ****     for(pcb = hsys._timPCB; pcb != NULL; pcb = pcb->next)
 197              		.loc 1 80 5 is_stmt 0 discriminator 1 view .LVU42
ARM GAS  /tmp/cci0zBnS.s 			page 6


 198 0012 1CB1     		cbz	r4, .L24
 199              		.loc 1 81 9 is_stmt 1 view .LVU43
 200              		.loc 1 81 15 is_stmt 0 view .LVU44
 201 0014 2368     		ldr	r3, [r4]
 202              		.loc 1 81 11 view .LVU45
 203 0016 002B     		cmp	r3, #0
 204 0018 F7D1     		bne	.L25
 205 001a F9E7     		b	.L21
 206              	.L24:
  82:fw-lib-stm32-CocktailOS/cocktail_it.c **** }
 207              		.loc 1 82 1 view .LVU46
 208 001c 38BD     		pop	{r3, r4, r5, pc}
 209              	.LVL17:
 210              	.L27:
 211              		.loc 1 82 1 view .LVU47
 212 001e 00BF     		.align	2
 213              	.L26:
 214 0020 00000000 		.word	hsys
 215              		.cfi_endproc
 216              	.LFE143:
 218              		.text
 219              	.Letext0:
 220              		.file 2 "/usr/share/gcc-arm-none-eabi-10.3-2021.10/arm-none-eabi/include/machine/_default_types.h"
 221              		.file 3 "/usr/share/gcc-arm-none-eabi-10.3-2021.10/arm-none-eabi/include/sys/_stdint.h"
 222              		.file 4 "Drivers/CMSIS/Device/ST/STM32F7xx/Include/stm32f746xx.h"
 223              		.file 5 "Drivers/STM32F7xx_HAL_Driver/Inc/stm32f7xx_hal_def.h"
 224              		.file 6 "Drivers/STM32F7xx_HAL_Driver/Inc/stm32f7xx_hal_dma.h"
 225              		.file 7 "Drivers/STM32F7xx_HAL_Driver/Inc/stm32f7xx_hal_tim.h"
 226              		.file 8 "fw-lib-stm32-CocktailOS/cocktail_core.h"
 227              		.file 9 "fw-lib-stm32-CocktailOS/cocktail.h"
ARM GAS  /tmp/cci0zBnS.s 			page 7

