ARM GAS  /tmp/ccp0oC7s.s 			page 1


   1              		.cpu cortex-m7
   2              		.arch armv7e-m
   3              		.fpu fpv5-sp-d16
   4              		.eabi_attribute 27, 1
   5              		.eabi_attribute 28, 1
   6              		.eabi_attribute 20, 1
   7              		.eabi_attribute 21, 1
   8              		.eabi_attribute 23, 3
   9              		.eabi_attribute 24, 1
  10              		.eabi_attribute 25, 1
  11              		.eabi_attribute 26, 1
  12              		.eabi_attribute 30, 1
  13              		.eabi_attribute 34, 1
  14              		.eabi_attribute 18, 4
  15              		.file	"cocktail_core.c"
  16              		.text
  17              	.Ltext0:
  18              		.cfi_sections	.debug_frame
  19              		.section	.text.AAL_Init,"ax",%progbits
  20              		.align	1
  21              		.weak	AAL_Init
  22              		.syntax unified
  23              		.thumb
  24              		.thumb_func
  26              	AAL_Init:
  27              	.LFB141:
  28              		.file 1 "fw-lib-stm32-CocktailOS/cocktail_core.c"
   1:fw-lib-stm32-CocktailOS/cocktail_core.c **** #include "cocktail.h"
   2:fw-lib-stm32-CocktailOS/cocktail_core.c **** #include "stdlib.h"
   3:fw-lib-stm32-CocktailOS/cocktail_core.c **** #include "gpio.h"
   4:fw-lib-stm32-CocktailOS/cocktail_core.c **** 
   5:fw-lib-stm32-CocktailOS/cocktail_core.c **** __IO AAL_HandleTypeDef hsys = {
   6:fw-lib-stm32-CocktailOS/cocktail_core.c **** 
   7:fw-lib-stm32-CocktailOS/cocktail_core.c ****     ._processPCB = NULL,
   8:fw-lib-stm32-CocktailOS/cocktail_core.c **** 
   9:fw-lib-stm32-CocktailOS/cocktail_core.c ****     ._extiPCB    = NULL,
  10:fw-lib-stm32-CocktailOS/cocktail_core.c **** 
  11:fw-lib-stm32-CocktailOS/cocktail_core.c **** #ifdef HAL_TIM_MODULE_ENABLED
  12:fw-lib-stm32-CocktailOS/cocktail_core.c ****     ._pwmPCB = NULL,
  13:fw-lib-stm32-CocktailOS/cocktail_core.c **** 
  14:fw-lib-stm32-CocktailOS/cocktail_core.c ****     ._timPCB = NULL,
  15:fw-lib-stm32-CocktailOS/cocktail_core.c **** #endif
  16:fw-lib-stm32-CocktailOS/cocktail_core.c **** 
  17:fw-lib-stm32-CocktailOS/cocktail_core.c **** };
  18:fw-lib-stm32-CocktailOS/cocktail_core.c **** 
  19:fw-lib-stm32-CocktailOS/cocktail_core.c **** __weak void
  20:fw-lib-stm32-CocktailOS/cocktail_core.c **** AAL_Init(void)
  21:fw-lib-stm32-CocktailOS/cocktail_core.c **** {
  29              		.loc 1 21 1 view -0
  30              		.cfi_startproc
  31              		@ args = 0, pretend = 0, frame = 0
  32              		@ frame_needed = 0, uses_anonymous_args = 0
  33              		@ link register save eliminated.
  22:fw-lib-stm32-CocktailOS/cocktail_core.c **** }
  34              		.loc 1 22 1 view .LVU1
  35 0000 7047     		bx	lr
  36              		.cfi_endproc
ARM GAS  /tmp/ccp0oC7s.s 			page 2


  37              	.LFE141:
  39              		.section	.text.push_process,"ax",%progbits
  40              		.align	1
  41              		.global	push_process
  42              		.syntax unified
  43              		.thumb
  44              		.thumb_func
  46              	push_process:
  47              	.LVL0:
  48              	.LFB142:
  23:fw-lib-stm32-CocktailOS/cocktail_core.c **** 
  24:fw-lib-stm32-CocktailOS/cocktail_core.c **** void
  25:fw-lib-stm32-CocktailOS/cocktail_core.c **** push_process(PROCESS_Callback process_fn, void *arg)
  26:fw-lib-stm32-CocktailOS/cocktail_core.c **** {
  49              		.loc 1 26 1 view -0
  50              		.cfi_startproc
  51              		@ args = 0, pretend = 0, frame = 0
  52              		@ frame_needed = 0, uses_anonymous_args = 0
  53              		.loc 1 26 1 is_stmt 0 view .LVU3
  54 0000 38B5     		push	{r3, r4, r5, lr}
  55              	.LCFI0:
  56              		.cfi_def_cfa_offset 16
  57              		.cfi_offset 3, -16
  58              		.cfi_offset 4, -12
  59              		.cfi_offset 5, -8
  60              		.cfi_offset 14, -4
  61 0002 0446     		mov	r4, r0
  62 0004 0D46     		mov	r5, r1
  27:fw-lib-stm32-CocktailOS/cocktail_core.c ****     PROCESS_PCB *newpcb, *pcb;
  63              		.loc 1 27 5 is_stmt 1 view .LVU4
  28:fw-lib-stm32-CocktailOS/cocktail_core.c ****     newpcb              = (PROCESS_PCB *)malloc(sizeof(PROCESS_PCB));
  64              		.loc 1 28 5 view .LVU5
  65              		.loc 1 28 42 is_stmt 0 view .LVU6
  66 0006 0C20     		movs	r0, #12
  67              	.LVL1:
  68              		.loc 1 28 42 view .LVU7
  69 0008 FFF7FEFF 		bl	malloc
  70              	.LVL2:
  29:fw-lib-stm32-CocktailOS/cocktail_core.c ****     newpcb->_context    = arg;
  71              		.loc 1 29 5 is_stmt 1 view .LVU8
  72              		.loc 1 29 25 is_stmt 0 view .LVU9
  73 000c 4560     		str	r5, [r0, #4]
  30:fw-lib-stm32-CocktailOS/cocktail_core.c ****     newpcb->_process_fn = process_fn;
  74              		.loc 1 30 5 is_stmt 1 view .LVU10
  75              		.loc 1 30 25 is_stmt 0 view .LVU11
  76 000e 0460     		str	r4, [r0]
  31:fw-lib-stm32-CocktailOS/cocktail_core.c ****     newpcb->next        = NULL;
  77              		.loc 1 31 5 is_stmt 1 view .LVU12
  78              		.loc 1 31 25 is_stmt 0 view .LVU13
  79 0010 0023     		movs	r3, #0
  80 0012 8360     		str	r3, [r0, #8]
  32:fw-lib-stm32-CocktailOS/cocktail_core.c **** 
  33:fw-lib-stm32-CocktailOS/cocktail_core.c ****     if(hsys._processPCB != NULL)
  81              		.loc 1 33 5 is_stmt 1 view .LVU14
  82              		.loc 1 33 12 is_stmt 0 view .LVU15
  83 0014 064B     		ldr	r3, .L7
  84 0016 1B68     		ldr	r3, [r3]
ARM GAS  /tmp/ccp0oC7s.s 			page 3


  85              		.loc 1 33 7 view .LVU16
  86 0018 3BB1     		cbz	r3, .L3
  34:fw-lib-stm32-CocktailOS/cocktail_core.c ****     {
  35:fw-lib-stm32-CocktailOS/cocktail_core.c ****         for(pcb = hsys._processPCB; pcb->next != NULL; pcb = pcb->next) {}
  87              		.loc 1 35 9 is_stmt 1 view .LVU17
  88              		.loc 1 35 17 is_stmt 0 view .LVU18
  89 001a 054B     		ldr	r3, .L7
  90 001c 1B68     		ldr	r3, [r3]
  91              	.LVL3:
  92              	.L4:
  93              		.loc 1 35 37 is_stmt 1 discriminator 1 view .LVU19
  94 001e 1A46     		mov	r2, r3
  95              		.loc 1 35 40 is_stmt 0 discriminator 1 view .LVU20
  96 0020 9B68     		ldr	r3, [r3, #8]
  97              	.LVL4:
  98              		.loc 1 35 9 discriminator 1 view .LVU21
  99 0022 002B     		cmp	r3, #0
 100 0024 FBD1     		bne	.L4
  36:fw-lib-stm32-CocktailOS/cocktail_core.c ****         pcb->next = newpcb;
 101              		.loc 1 36 9 is_stmt 1 view .LVU22
 102              		.loc 1 36 19 is_stmt 0 view .LVU23
 103 0026 9060     		str	r0, [r2, #8]
 104              	.LVL5:
 105              	.L2:
  37:fw-lib-stm32-CocktailOS/cocktail_core.c ****     }
  38:fw-lib-stm32-CocktailOS/cocktail_core.c ****     else hsys._processPCB = newpcb;
  39:fw-lib-stm32-CocktailOS/cocktail_core.c **** }
 106              		.loc 1 39 1 view .LVU24
 107 0028 38BD     		pop	{r3, r4, r5, pc}
 108              	.LVL6:
 109              	.L3:
  38:fw-lib-stm32-CocktailOS/cocktail_core.c **** }
 110              		.loc 1 38 10 is_stmt 1 view .LVU25
  38:fw-lib-stm32-CocktailOS/cocktail_core.c **** }
 111              		.loc 1 38 27 is_stmt 0 view .LVU26
 112 002a 014B     		ldr	r3, .L7
 113 002c 1860     		str	r0, [r3]
 114              		.loc 1 39 1 view .LVU27
 115 002e FBE7     		b	.L2
 116              	.L8:
 117              		.align	2
 118              	.L7:
 119 0030 00000000 		.word	.LANCHOR0
 120              		.cfi_endproc
 121              	.LFE142:
 123              		.section	.text.push_gpio_exti,"ax",%progbits
 124              		.align	1
 125              		.global	push_gpio_exti
 126              		.syntax unified
 127              		.thumb
 128              		.thumb_func
 130              	push_gpio_exti:
 131              	.LVL7:
 132              	.LFB143:
  40:fw-lib-stm32-CocktailOS/cocktail_core.c **** 
  41:fw-lib-stm32-CocktailOS/cocktail_core.c **** void
  42:fw-lib-stm32-CocktailOS/cocktail_core.c **** push_gpio_exti(GPIO_EXTI_Callback exti_fn)
ARM GAS  /tmp/ccp0oC7s.s 			page 4


  43:fw-lib-stm32-CocktailOS/cocktail_core.c **** {
 133              		.loc 1 43 1 is_stmt 1 view -0
 134              		.cfi_startproc
 135              		@ args = 0, pretend = 0, frame = 0
 136              		@ frame_needed = 0, uses_anonymous_args = 0
 137              		.loc 1 43 1 is_stmt 0 view .LVU29
 138 0000 10B5     		push	{r4, lr}
 139              	.LCFI1:
 140              		.cfi_def_cfa_offset 8
 141              		.cfi_offset 4, -8
 142              		.cfi_offset 14, -4
 143 0002 0446     		mov	r4, r0
  44:fw-lib-stm32-CocktailOS/cocktail_core.c ****     GPIO_EXTI_PCB *newpcb, *pcb;
 144              		.loc 1 44 5 is_stmt 1 view .LVU30
  45:fw-lib-stm32-CocktailOS/cocktail_core.c ****     newpcb           = (GPIO_EXTI_PCB *)malloc(sizeof(GPIO_EXTI_PCB));
 145              		.loc 1 45 5 view .LVU31
 146              		.loc 1 45 41 is_stmt 0 view .LVU32
 147 0004 0820     		movs	r0, #8
 148              	.LVL8:
 149              		.loc 1 45 41 view .LVU33
 150 0006 FFF7FEFF 		bl	malloc
 151              	.LVL9:
  46:fw-lib-stm32-CocktailOS/cocktail_core.c ****     newpcb->_exti_fn = exti_fn;
 152              		.loc 1 46 5 is_stmt 1 view .LVU34
 153              		.loc 1 46 22 is_stmt 0 view .LVU35
 154 000a 0460     		str	r4, [r0]
  47:fw-lib-stm32-CocktailOS/cocktail_core.c ****     newpcb->next     = NULL;
 155              		.loc 1 47 5 is_stmt 1 view .LVU36
 156              		.loc 1 47 22 is_stmt 0 view .LVU37
 157 000c 0023     		movs	r3, #0
 158 000e 4360     		str	r3, [r0, #4]
  48:fw-lib-stm32-CocktailOS/cocktail_core.c **** 
  49:fw-lib-stm32-CocktailOS/cocktail_core.c ****     if(hsys._extiPCB != NULL)
 159              		.loc 1 49 5 is_stmt 1 view .LVU38
 160              		.loc 1 49 12 is_stmt 0 view .LVU39
 161 0010 064B     		ldr	r3, .L14
 162 0012 5B68     		ldr	r3, [r3, #4]
 163              		.loc 1 49 7 view .LVU40
 164 0014 3BB1     		cbz	r3, .L10
  50:fw-lib-stm32-CocktailOS/cocktail_core.c ****     {
  51:fw-lib-stm32-CocktailOS/cocktail_core.c ****         for(pcb = hsys._extiPCB; pcb->next != NULL; pcb = pcb->next) {}
 165              		.loc 1 51 9 is_stmt 1 view .LVU41
 166              		.loc 1 51 17 is_stmt 0 view .LVU42
 167 0016 054B     		ldr	r3, .L14
 168 0018 5B68     		ldr	r3, [r3, #4]
 169              	.LVL10:
 170              	.L11:
 171              		.loc 1 51 34 is_stmt 1 discriminator 1 view .LVU43
 172 001a 1A46     		mov	r2, r3
 173              		.loc 1 51 37 is_stmt 0 discriminator 1 view .LVU44
 174 001c 5B68     		ldr	r3, [r3, #4]
 175              	.LVL11:
 176              		.loc 1 51 9 discriminator 1 view .LVU45
 177 001e 002B     		cmp	r3, #0
 178 0020 FBD1     		bne	.L11
  52:fw-lib-stm32-CocktailOS/cocktail_core.c ****         pcb->next = newpcb;
 179              		.loc 1 52 9 is_stmt 1 view .LVU46
ARM GAS  /tmp/ccp0oC7s.s 			page 5


 180              		.loc 1 52 19 is_stmt 0 view .LVU47
 181 0022 5060     		str	r0, [r2, #4]
 182              	.LVL12:
 183              	.L9:
  53:fw-lib-stm32-CocktailOS/cocktail_core.c ****     }
  54:fw-lib-stm32-CocktailOS/cocktail_core.c ****     else hsys._extiPCB = newpcb;
  55:fw-lib-stm32-CocktailOS/cocktail_core.c **** }
 184              		.loc 1 55 1 view .LVU48
 185 0024 10BD     		pop	{r4, pc}
 186              	.LVL13:
 187              	.L10:
  54:fw-lib-stm32-CocktailOS/cocktail_core.c **** }
 188              		.loc 1 54 10 is_stmt 1 view .LVU49
  54:fw-lib-stm32-CocktailOS/cocktail_core.c **** }
 189              		.loc 1 54 24 is_stmt 0 view .LVU50
 190 0026 014B     		ldr	r3, .L14
 191 0028 5860     		str	r0, [r3, #4]
 192              		.loc 1 55 1 view .LVU51
 193 002a FBE7     		b	.L9
 194              	.L15:
 195              		.align	2
 196              	.L14:
 197 002c 00000000 		.word	.LANCHOR0
 198              		.cfi_endproc
 199              	.LFE143:
 201              		.section	.text.push_pwm_it,"ax",%progbits
 202              		.align	1
 203              		.global	push_pwm_it
 204              		.syntax unified
 205              		.thumb
 206              		.thumb_func
 208              	push_pwm_it:
 209              	.LVL14:
 210              	.LFB144:
  56:fw-lib-stm32-CocktailOS/cocktail_core.c **** 
  57:fw-lib-stm32-CocktailOS/cocktail_core.c **** #ifdef HAL_TIM_MODULE_ENABLED
  58:fw-lib-stm32-CocktailOS/cocktail_core.c **** void
  59:fw-lib-stm32-CocktailOS/cocktail_core.c **** push_pwm_it(PWM_Callback pwm_fn)
  60:fw-lib-stm32-CocktailOS/cocktail_core.c **** {
 211              		.loc 1 60 1 is_stmt 1 view -0
 212              		.cfi_startproc
 213              		@ args = 0, pretend = 0, frame = 0
 214              		@ frame_needed = 0, uses_anonymous_args = 0
 215              		.loc 1 60 1 is_stmt 0 view .LVU53
 216 0000 10B5     		push	{r4, lr}
 217              	.LCFI2:
 218              		.cfi_def_cfa_offset 8
 219              		.cfi_offset 4, -8
 220              		.cfi_offset 14, -4
 221 0002 0446     		mov	r4, r0
  61:fw-lib-stm32-CocktailOS/cocktail_core.c ****     /* XXX: Handle PulseFinshed and HalfCplt callbacks */
  62:fw-lib-stm32-CocktailOS/cocktail_core.c ****     PWM_PCB *newpcb, *pcb;
 222              		.loc 1 62 5 is_stmt 1 view .LVU54
  63:fw-lib-stm32-CocktailOS/cocktail_core.c ****     newpcb          = (PWM_PCB *)malloc(sizeof(PWM_PCB));
 223              		.loc 1 63 5 view .LVU55
 224              		.loc 1 63 34 is_stmt 0 view .LVU56
 225 0004 0820     		movs	r0, #8
ARM GAS  /tmp/ccp0oC7s.s 			page 6


 226              	.LVL15:
 227              		.loc 1 63 34 view .LVU57
 228 0006 FFF7FEFF 		bl	malloc
 229              	.LVL16:
  64:fw-lib-stm32-CocktailOS/cocktail_core.c ****     newpcb->_pwm_fn = pwm_fn;
 230              		.loc 1 64 5 is_stmt 1 view .LVU58
 231              		.loc 1 64 21 is_stmt 0 view .LVU59
 232 000a 0460     		str	r4, [r0]
  65:fw-lib-stm32-CocktailOS/cocktail_core.c ****     newpcb->next    = NULL;
 233              		.loc 1 65 5 is_stmt 1 view .LVU60
 234              		.loc 1 65 21 is_stmt 0 view .LVU61
 235 000c 0023     		movs	r3, #0
 236 000e 4360     		str	r3, [r0, #4]
  66:fw-lib-stm32-CocktailOS/cocktail_core.c **** 
  67:fw-lib-stm32-CocktailOS/cocktail_core.c ****     if(hsys._pwmPCB != NULL)
 237              		.loc 1 67 5 is_stmt 1 view .LVU62
 238              		.loc 1 67 12 is_stmt 0 view .LVU63
 239 0010 064B     		ldr	r3, .L21
 240 0012 9B68     		ldr	r3, [r3, #8]
 241              		.loc 1 67 7 view .LVU64
 242 0014 3BB1     		cbz	r3, .L17
  68:fw-lib-stm32-CocktailOS/cocktail_core.c ****     {
  69:fw-lib-stm32-CocktailOS/cocktail_core.c ****         for(pcb = hsys._pwmPCB; pcb->next != NULL; pcb = pcb->next) {}
 243              		.loc 1 69 9 is_stmt 1 view .LVU65
 244              		.loc 1 69 17 is_stmt 0 view .LVU66
 245 0016 054B     		ldr	r3, .L21
 246 0018 9B68     		ldr	r3, [r3, #8]
 247              	.LVL17:
 248              	.L18:
 249              		.loc 1 69 33 is_stmt 1 discriminator 1 view .LVU67
 250 001a 1A46     		mov	r2, r3
 251              		.loc 1 69 36 is_stmt 0 discriminator 1 view .LVU68
 252 001c 5B68     		ldr	r3, [r3, #4]
 253              	.LVL18:
 254              		.loc 1 69 9 discriminator 1 view .LVU69
 255 001e 002B     		cmp	r3, #0
 256 0020 FBD1     		bne	.L18
  70:fw-lib-stm32-CocktailOS/cocktail_core.c ****         pcb->next = newpcb;
 257              		.loc 1 70 9 is_stmt 1 view .LVU70
 258              		.loc 1 70 19 is_stmt 0 view .LVU71
 259 0022 5060     		str	r0, [r2, #4]
 260              	.LVL19:
 261              	.L16:
  71:fw-lib-stm32-CocktailOS/cocktail_core.c ****     }
  72:fw-lib-stm32-CocktailOS/cocktail_core.c ****     else hsys._pwmPCB = newpcb;
  73:fw-lib-stm32-CocktailOS/cocktail_core.c **** }
 262              		.loc 1 73 1 view .LVU72
 263 0024 10BD     		pop	{r4, pc}
 264              	.LVL20:
 265              	.L17:
  72:fw-lib-stm32-CocktailOS/cocktail_core.c **** }
 266              		.loc 1 72 10 is_stmt 1 view .LVU73
  72:fw-lib-stm32-CocktailOS/cocktail_core.c **** }
 267              		.loc 1 72 23 is_stmt 0 view .LVU74
 268 0026 014B     		ldr	r3, .L21
 269 0028 9860     		str	r0, [r3, #8]
 270              		.loc 1 73 1 view .LVU75
ARM GAS  /tmp/ccp0oC7s.s 			page 7


 271 002a FBE7     		b	.L16
 272              	.L22:
 273              		.align	2
 274              	.L21:
 275 002c 00000000 		.word	.LANCHOR0
 276              		.cfi_endproc
 277              	.LFE144:
 279              		.section	.text.push_tim_it,"ax",%progbits
 280              		.align	1
 281              		.global	push_tim_it
 282              		.syntax unified
 283              		.thumb
 284              		.thumb_func
 286              	push_tim_it:
 287              	.LVL21:
 288              	.LFB145:
  74:fw-lib-stm32-CocktailOS/cocktail_core.c **** 
  75:fw-lib-stm32-CocktailOS/cocktail_core.c **** void
  76:fw-lib-stm32-CocktailOS/cocktail_core.c **** push_tim_it(TIM_Callback tim_fn)
  77:fw-lib-stm32-CocktailOS/cocktail_core.c **** {
 289              		.loc 1 77 1 is_stmt 1 view -0
 290              		.cfi_startproc
 291              		@ args = 0, pretend = 0, frame = 0
 292              		@ frame_needed = 0, uses_anonymous_args = 0
 293              		.loc 1 77 1 is_stmt 0 view .LVU77
 294 0000 10B5     		push	{r4, lr}
 295              	.LCFI3:
 296              		.cfi_def_cfa_offset 8
 297              		.cfi_offset 4, -8
 298              		.cfi_offset 14, -4
 299 0002 0446     		mov	r4, r0
  78:fw-lib-stm32-CocktailOS/cocktail_core.c ****     /* XXX: Handle PeriodElapsedCallback */
  79:fw-lib-stm32-CocktailOS/cocktail_core.c ****     TIM_PCB *newpcb, *pcb;
 300              		.loc 1 79 5 is_stmt 1 view .LVU78
  80:fw-lib-stm32-CocktailOS/cocktail_core.c ****     newpcb          = (TIM_PCB *)malloc(sizeof(TIM_PCB));
 301              		.loc 1 80 5 view .LVU79
 302              		.loc 1 80 34 is_stmt 0 view .LVU80
 303 0004 0820     		movs	r0, #8
 304              	.LVL22:
 305              		.loc 1 80 34 view .LVU81
 306 0006 FFF7FEFF 		bl	malloc
 307              	.LVL23:
  81:fw-lib-stm32-CocktailOS/cocktail_core.c ****     newpcb->_tim_fn = tim_fn;
 308              		.loc 1 81 5 is_stmt 1 view .LVU82
 309              		.loc 1 81 21 is_stmt 0 view .LVU83
 310 000a 0460     		str	r4, [r0]
  82:fw-lib-stm32-CocktailOS/cocktail_core.c ****     newpcb->next    = NULL;
 311              		.loc 1 82 5 is_stmt 1 view .LVU84
 312              		.loc 1 82 21 is_stmt 0 view .LVU85
 313 000c 0023     		movs	r3, #0
 314 000e 4360     		str	r3, [r0, #4]
  83:fw-lib-stm32-CocktailOS/cocktail_core.c **** 
  84:fw-lib-stm32-CocktailOS/cocktail_core.c ****     if(hsys._timPCB != NULL)
 315              		.loc 1 84 5 is_stmt 1 view .LVU86
 316              		.loc 1 84 12 is_stmt 0 view .LVU87
 317 0010 064B     		ldr	r3, .L28
 318 0012 DB68     		ldr	r3, [r3, #12]
ARM GAS  /tmp/ccp0oC7s.s 			page 8


 319              		.loc 1 84 7 view .LVU88
 320 0014 3BB1     		cbz	r3, .L24
  85:fw-lib-stm32-CocktailOS/cocktail_core.c ****     {
  86:fw-lib-stm32-CocktailOS/cocktail_core.c ****         for(pcb = hsys._timPCB; pcb->next != NULL; pcb = pcb->next) {}
 321              		.loc 1 86 9 is_stmt 1 view .LVU89
 322              		.loc 1 86 17 is_stmt 0 view .LVU90
 323 0016 054B     		ldr	r3, .L28
 324 0018 DB68     		ldr	r3, [r3, #12]
 325              	.LVL24:
 326              	.L25:
 327              		.loc 1 86 33 is_stmt 1 discriminator 1 view .LVU91
 328 001a 1A46     		mov	r2, r3
 329              		.loc 1 86 36 is_stmt 0 discriminator 1 view .LVU92
 330 001c 5B68     		ldr	r3, [r3, #4]
 331              	.LVL25:
 332              		.loc 1 86 9 discriminator 1 view .LVU93
 333 001e 002B     		cmp	r3, #0
 334 0020 FBD1     		bne	.L25
  87:fw-lib-stm32-CocktailOS/cocktail_core.c ****         pcb->next = newpcb;
 335              		.loc 1 87 9 is_stmt 1 view .LVU94
 336              		.loc 1 87 19 is_stmt 0 view .LVU95
 337 0022 5060     		str	r0, [r2, #4]
 338              	.LVL26:
 339              	.L23:
  88:fw-lib-stm32-CocktailOS/cocktail_core.c ****     }
  89:fw-lib-stm32-CocktailOS/cocktail_core.c ****     else hsys._timPCB = newpcb;
  90:fw-lib-stm32-CocktailOS/cocktail_core.c **** }
 340              		.loc 1 90 1 view .LVU96
 341 0024 10BD     		pop	{r4, pc}
 342              	.LVL27:
 343              	.L24:
  89:fw-lib-stm32-CocktailOS/cocktail_core.c **** }
 344              		.loc 1 89 10 is_stmt 1 view .LVU97
  89:fw-lib-stm32-CocktailOS/cocktail_core.c **** }
 345              		.loc 1 89 23 is_stmt 0 view .LVU98
 346 0026 014B     		ldr	r3, .L28
 347 0028 D860     		str	r0, [r3, #12]
 348              		.loc 1 90 1 view .LVU99
 349 002a FBE7     		b	.L23
 350              	.L29:
 351              		.align	2
 352              	.L28:
 353 002c 00000000 		.word	.LANCHOR0
 354              		.cfi_endproc
 355              	.LFE145:
 357              		.section	.text.AAL_Run,"ax",%progbits
 358              		.align	1
 359              		.global	AAL_Run
 360              		.syntax unified
 361              		.thumb
 362              		.thumb_func
 364              	AAL_Run:
 365              	.LFB146:
  91:fw-lib-stm32-CocktailOS/cocktail_core.c **** #endif
  92:fw-lib-stm32-CocktailOS/cocktail_core.c **** 
  93:fw-lib-stm32-CocktailOS/cocktail_core.c **** void
  94:fw-lib-stm32-CocktailOS/cocktail_core.c **** AAL_Run(void)
ARM GAS  /tmp/ccp0oC7s.s 			page 9


  95:fw-lib-stm32-CocktailOS/cocktail_core.c **** {
 366              		.loc 1 95 1 is_stmt 1 view -0
 367              		.cfi_startproc
 368              		@ args = 0, pretend = 0, frame = 0
 369              		@ frame_needed = 0, uses_anonymous_args = 0
 370 0000 10B5     		push	{r4, lr}
 371              	.LCFI4:
 372              		.cfi_def_cfa_offset 8
 373              		.cfi_offset 4, -8
 374              		.cfi_offset 14, -4
  96:fw-lib-stm32-CocktailOS/cocktail_core.c ****     /* TODO: process scheduling algorithm */
  97:fw-lib-stm32-CocktailOS/cocktail_core.c ****     PROCESS_PCB *pcb;
 375              		.loc 1 97 5 view .LVU101
  98:fw-lib-stm32-CocktailOS/cocktail_core.c **** 
  99:fw-lib-stm32-CocktailOS/cocktail_core.c ****     for(pcb = hsys._processPCB; pcb != NULL; pcb = pcb->next)
 376              		.loc 1 99 5 view .LVU102
 377              		.loc 1 99 13 is_stmt 0 view .LVU103
 378 0002 064B     		ldr	r3, .L37
 379 0004 1C68     		ldr	r4, [r3]
 380              	.LVL28:
 381              		.loc 1 99 5 view .LVU104
 382 0006 02E0     		b	.L31
 383              	.L36:
 100:fw-lib-stm32-CocktailOS/cocktail_core.c ****         if(pcb->_process_fn != NULL) pcb->_process_fn(pcb->_context);
 384              		.loc 1 100 38 is_stmt 1 discriminator 1 view .LVU105
 385 0008 6068     		ldr	r0, [r4, #4]
 386 000a 9847     		blx	r3
 387              	.LVL29:
 388              	.L32:
  99:fw-lib-stm32-CocktailOS/cocktail_core.c ****         if(pcb->_process_fn != NULL) pcb->_process_fn(pcb->_context);
 389              		.loc 1 99 46 discriminator 2 view .LVU106
  99:fw-lib-stm32-CocktailOS/cocktail_core.c ****         if(pcb->_process_fn != NULL) pcb->_process_fn(pcb->_context);
 390              		.loc 1 99 50 is_stmt 0 discriminator 2 view .LVU107
 391 000c A468     		ldr	r4, [r4, #8]
 392              	.LVL30:
 393              	.L31:
  99:fw-lib-stm32-CocktailOS/cocktail_core.c ****         if(pcb->_process_fn != NULL) pcb->_process_fn(pcb->_context);
 394              		.loc 1 99 33 is_stmt 1 discriminator 1 view .LVU108
  99:fw-lib-stm32-CocktailOS/cocktail_core.c ****         if(pcb->_process_fn != NULL) pcb->_process_fn(pcb->_context);
 395              		.loc 1 99 5 is_stmt 0 discriminator 1 view .LVU109
 396 000e 1CB1     		cbz	r4, .L35
 397              		.loc 1 100 9 is_stmt 1 view .LVU110
 398              		.loc 1 100 15 is_stmt 0 view .LVU111
 399 0010 2368     		ldr	r3, [r4]
 400              		.loc 1 100 11 view .LVU112
 401 0012 002B     		cmp	r3, #0
 402 0014 F8D1     		bne	.L36
 403 0016 F9E7     		b	.L32
 404              	.L35:
 101:fw-lib-stm32-CocktailOS/cocktail_core.c **** }
 405              		.loc 1 101 1 view .LVU113
 406 0018 10BD     		pop	{r4, pc}
 407              	.LVL31:
 408              	.L38:
 409              		.loc 1 101 1 view .LVU114
 410 001a 00BF     		.align	2
 411              	.L37:
ARM GAS  /tmp/ccp0oC7s.s 			page 10


 412 001c 00000000 		.word	.LANCHOR0
 413              		.cfi_endproc
 414              	.LFE146:
 416              		.global	hsys
 417              		.section	.bss.hsys,"aw",%nobits
 418              		.align	2
 419              		.set	.LANCHOR0,. + 0
 422              	hsys:
 423 0000 00000000 		.space	16
 423      00000000 
 423      00000000 
 423      00000000 
 424              		.text
 425              	.Letext0:
 426              		.file 2 "/usr/share/gcc-arm-none-eabi-10.3-2021.10/arm-none-eabi/include/machine/_default_types.h"
 427              		.file 3 "/usr/share/gcc-arm-none-eabi-10.3-2021.10/arm-none-eabi/include/sys/_stdint.h"
 428              		.file 4 "Drivers/CMSIS/Device/ST/STM32F7xx/Include/stm32f746xx.h"
 429              		.file 5 "Drivers/STM32F7xx_HAL_Driver/Inc/stm32f7xx_hal_def.h"
 430              		.file 6 "Drivers/STM32F7xx_HAL_Driver/Inc/stm32f7xx_hal_dma.h"
 431              		.file 7 "Drivers/STM32F7xx_HAL_Driver/Inc/stm32f7xx_hal_tim.h"
 432              		.file 8 "fw-lib-stm32-CocktailOS/cocktail_core.h"
 433              		.file 9 "fw-lib-stm32-CocktailOS/cocktail.h"
 434              		.file 10 "/usr/share/gcc-arm-none-eabi-10.3-2021.10/arm-none-eabi/include/stdlib.h"
ARM GAS  /tmp/ccp0oC7s.s 			page 11

