ARM GAS  /tmp/ccgpuuTA.s 			page 1


   1              		.cpu cortex-m7
   2              		.arch armv7e-m
   3              		.fpu fpv5-sp-d16
   4              		.eabi_attribute 27, 1
   5              		.eabi_attribute 28, 1
   6              		.eabi_attribute 20, 1
   7              		.eabi_attribute 21, 1
   8              		.eabi_attribute 23, 3
   9              		.eabi_attribute 24, 1
  10              		.eabi_attribute 25, 1
  11              		.eabi_attribute 26, 1
  12              		.eabi_attribute 30, 1
  13              		.eabi_attribute 34, 1
  14              		.eabi_attribute 18, 4
  15              		.file	"pcb.c"
  16              		.text
  17              	.Ltext0:
  18              		.cfi_sections	.debug_frame
  19              		.section	.text.Cocktail_newProcess,"ax",%progbits
  20              		.align	1
  21              		.global	Cocktail_newProcess
  22              		.syntax unified
  23              		.thumb
  24              		.thumb_func
  26              	Cocktail_newProcess:
  27              	.LFB0:
  28              		.file 1 "fw-lib-stm32-CocktailOS/core/pcb.c"
   1:fw-lib-stm32-CocktailOS/core/pcb.c **** #include "pcb.h"
   2:fw-lib-stm32-CocktailOS/core/pcb.c **** 
   3:fw-lib-stm32-CocktailOS/core/pcb.c **** #include "stdlib.h"
   4:fw-lib-stm32-CocktailOS/core/pcb.c **** #include "stdbool.h"
   5:fw-lib-stm32-CocktailOS/core/pcb.c **** 
   6:fw-lib-stm32-CocktailOS/core/pcb.c **** Cocktail_PcbTypeDef *
   7:fw-lib-stm32-CocktailOS/core/pcb.c **** Cocktail_newProcess()
   8:fw-lib-stm32-CocktailOS/core/pcb.c **** {
  29              		.loc 1 8 1 view -0
  30              		.cfi_startproc
  31              		@ args = 0, pretend = 0, frame = 0
  32              		@ frame_needed = 0, uses_anonymous_args = 0
  33 0000 08B5     		push	{r3, lr}
  34              	.LCFI0:
  35              		.cfi_def_cfa_offset 8
  36              		.cfi_offset 3, -8
  37              		.cfi_offset 14, -4
   9:fw-lib-stm32-CocktailOS/core/pcb.c ****     Cocktail_PcbTypeDef *pcb;
  38              		.loc 1 9 5 view .LVU1
  10:fw-lib-stm32-CocktailOS/core/pcb.c **** 
  11:fw-lib-stm32-CocktailOS/core/pcb.c ****     pcb = (Cocktail_PcbTypeDef *)malloc(sizeof(Cocktail_PcbTypeDef));
  39              		.loc 1 11 5 view .LVU2
  40              		.loc 1 11 34 is_stmt 0 view .LVU3
  41 0002 0C20     		movs	r0, #12
  42 0004 FFF7FEFF 		bl	malloc
  43              	.LVL0:
  12:fw-lib-stm32-CocktailOS/core/pcb.c **** 
  13:fw-lib-stm32-CocktailOS/core/pcb.c ****     pcb->task_queue = NULL;
  44              		.loc 1 13 5 is_stmt 1 view .LVU4
  45              		.loc 1 13 21 is_stmt 0 view .LVU5
ARM GAS  /tmp/ccgpuuTA.s 			page 2


  46 0008 0022     		movs	r2, #0
  47 000a 0260     		str	r2, [r0]
  14:fw-lib-stm32-CocktailOS/core/pcb.c ****     pcb->next       = NULL;
  48              		.loc 1 14 5 is_stmt 1 view .LVU6
  49              		.loc 1 14 21 is_stmt 0 view .LVU7
  50 000c 4260     		str	r2, [r0, #4]
  15:fw-lib-stm32-CocktailOS/core/pcb.c ****     pcb->tail       = pcb;
  51              		.loc 1 15 5 is_stmt 1 view .LVU8
  52              		.loc 1 15 21 is_stmt 0 view .LVU9
  53 000e 8060     		str	r0, [r0, #8]
  16:fw-lib-stm32-CocktailOS/core/pcb.c **** 
  17:fw-lib-stm32-CocktailOS/core/pcb.c ****     return pcb;
  54              		.loc 1 17 5 is_stmt 1 view .LVU10
  18:fw-lib-stm32-CocktailOS/core/pcb.c **** }
  55              		.loc 1 18 1 is_stmt 0 view .LVU11
  56 0010 08BD     		pop	{r3, pc}
  57              		.cfi_endproc
  58              	.LFE0:
  60              		.section	.text.Cocktail_freePCB,"ax",%progbits
  61              		.align	1
  62              		.global	Cocktail_freePCB
  63              		.syntax unified
  64              		.thumb
  65              		.thumb_func
  67              	Cocktail_freePCB:
  68              	.LVL1:
  69              	.LFB1:
  19:fw-lib-stm32-CocktailOS/core/pcb.c **** 
  20:fw-lib-stm32-CocktailOS/core/pcb.c **** void
  21:fw-lib-stm32-CocktailOS/core/pcb.c **** Cocktail_freePCB(Cocktail_PcbTypeDef *pcb)
  22:fw-lib-stm32-CocktailOS/core/pcb.c **** {
  70              		.loc 1 22 1 is_stmt 1 view -0
  71              		.cfi_startproc
  72              		@ args = 0, pretend = 0, frame = 0
  73              		@ frame_needed = 0, uses_anonymous_args = 0
  74              		.loc 1 22 1 is_stmt 0 view .LVU13
  75 0000 38B5     		push	{r3, r4, r5, lr}
  76              	.LCFI1:
  77              		.cfi_def_cfa_offset 16
  78              		.cfi_offset 3, -16
  79              		.cfi_offset 4, -12
  80              		.cfi_offset 5, -8
  81              		.cfi_offset 14, -4
  82 0002 0546     		mov	r5, r0
  23:fw-lib-stm32-CocktailOS/core/pcb.c ****     Cocktail_TaskTypeDef *task;
  83              		.loc 1 23 5 is_stmt 1 view .LVU14
  24:fw-lib-stm32-CocktailOS/core/pcb.c **** 
  25:fw-lib-stm32-CocktailOS/core/pcb.c ****     for(task = pcb->task_queue; task != NULL; task = task->next)
  84              		.loc 1 25 5 view .LVU15
  85              		.loc 1 25 14 is_stmt 0 view .LVU16
  86 0004 0468     		ldr	r4, [r0]
  87              	.LVL2:
  88              		.loc 1 25 5 view .LVU17
  89 0006 03E0     		b	.L4
  90              	.LVL3:
  91              	.L5:
  26:fw-lib-stm32-CocktailOS/core/pcb.c ****         Cocktail_freeTask(task);
ARM GAS  /tmp/ccgpuuTA.s 			page 3


  92              		.loc 1 26 9 is_stmt 1 discriminator 3 view .LVU18
  93 0008 2046     		mov	r0, r4
  94 000a FFF7FEFF 		bl	Cocktail_freeTask
  95              	.LVL4:
  25:fw-lib-stm32-CocktailOS/core/pcb.c ****         Cocktail_freeTask(task);
  96              		.loc 1 25 47 discriminator 3 view .LVU19
  25:fw-lib-stm32-CocktailOS/core/pcb.c ****         Cocktail_freeTask(task);
  97              		.loc 1 25 52 is_stmt 0 discriminator 3 view .LVU20
  98 000e E468     		ldr	r4, [r4, #12]
  99              	.LVL5:
 100              	.L4:
  25:fw-lib-stm32-CocktailOS/core/pcb.c ****         Cocktail_freeTask(task);
 101              		.loc 1 25 33 is_stmt 1 discriminator 1 view .LVU21
  25:fw-lib-stm32-CocktailOS/core/pcb.c ****         Cocktail_freeTask(task);
 102              		.loc 1 25 5 is_stmt 0 discriminator 1 view .LVU22
 103 0010 002C     		cmp	r4, #0
 104 0012 F9D1     		bne	.L5
  27:fw-lib-stm32-CocktailOS/core/pcb.c **** 
  28:fw-lib-stm32-CocktailOS/core/pcb.c ****     free(pcb);
 105              		.loc 1 28 5 is_stmt 1 view .LVU23
 106 0014 2846     		mov	r0, r5
 107 0016 FFF7FEFF 		bl	free
 108              	.LVL6:
  29:fw-lib-stm32-CocktailOS/core/pcb.c **** }
 109              		.loc 1 29 1 is_stmt 0 view .LVU24
 110 001a 38BD     		pop	{r3, r4, r5, pc}
 111              		.loc 1 29 1 view .LVU25
 112              		.cfi_endproc
 113              	.LFE1:
 115              		.section	.text.Cocktail_putTask,"ax",%progbits
 116              		.align	1
 117              		.global	Cocktail_putTask
 118              		.syntax unified
 119              		.thumb
 120              		.thumb_func
 122              	Cocktail_putTask:
 123              	.LVL7:
 124              	.LFB2:
  30:fw-lib-stm32-CocktailOS/core/pcb.c **** 
  31:fw-lib-stm32-CocktailOS/core/pcb.c **** void
  32:fw-lib-stm32-CocktailOS/core/pcb.c **** Cocktail_putTask(Cocktail_PcbTypeDef *pcb, Cocktail_TaskTypeDef *new_task)
  33:fw-lib-stm32-CocktailOS/core/pcb.c **** {
 125              		.loc 1 33 1 is_stmt 1 view -0
 126              		.cfi_startproc
 127              		@ args = 0, pretend = 0, frame = 0
 128              		@ frame_needed = 0, uses_anonymous_args = 0
 129              		@ link register save eliminated.
  34:fw-lib-stm32-CocktailOS/core/pcb.c ****     Cocktail_TaskTypeDef *task = pcb->task_queue;
 130              		.loc 1 34 5 view .LVU27
 131              		.loc 1 34 27 is_stmt 0 view .LVU28
 132 0000 0368     		ldr	r3, [r0]
 133              	.LVL8:
  35:fw-lib-stm32-CocktailOS/core/pcb.c **** 
  36:fw-lib-stm32-CocktailOS/core/pcb.c ****     if(task == NULL) pcb->task_queue = new_task;
 134              		.loc 1 36 5 is_stmt 1 view .LVU29
 135              		.loc 1 36 7 is_stmt 0 view .LVU30
 136 0002 23B1     		cbz	r3, .L10
ARM GAS  /tmp/ccgpuuTA.s 			page 4


  37:fw-lib-stm32-CocktailOS/core/pcb.c ****     else
  38:fw-lib-stm32-CocktailOS/core/pcb.c ****     {
  39:fw-lib-stm32-CocktailOS/core/pcb.c ****         task->tail->next = new_task;
 137              		.loc 1 39 9 is_stmt 1 view .LVU31
 138              		.loc 1 39 13 is_stmt 0 view .LVU32
 139 0004 1A69     		ldr	r2, [r3, #16]
 140              		.loc 1 39 26 view .LVU33
 141 0006 D160     		str	r1, [r2, #12]
  40:fw-lib-stm32-CocktailOS/core/pcb.c ****         task->tail       = new_task;
 142              		.loc 1 40 9 is_stmt 1 view .LVU34
 143              		.loc 1 40 26 is_stmt 0 view .LVU35
 144 0008 1961     		str	r1, [r3, #16]
 145              	.L9:
  41:fw-lib-stm32-CocktailOS/core/pcb.c ****     }
  42:fw-lib-stm32-CocktailOS/core/pcb.c **** 
  43:fw-lib-stm32-CocktailOS/core/pcb.c ****     new_task->_pcb = pcb;
 146              		.loc 1 43 5 is_stmt 1 view .LVU36
 147              		.loc 1 43 20 is_stmt 0 view .LVU37
 148 000a 8860     		str	r0, [r1, #8]
  44:fw-lib-stm32-CocktailOS/core/pcb.c **** }
 149              		.loc 1 44 1 view .LVU38
 150 000c 7047     		bx	lr
 151              	.L10:
  36:fw-lib-stm32-CocktailOS/core/pcb.c ****     else
 152              		.loc 1 36 22 is_stmt 1 discriminator 1 view .LVU39
  36:fw-lib-stm32-CocktailOS/core/pcb.c ****     else
 153              		.loc 1 36 38 is_stmt 0 discriminator 1 view .LVU40
 154 000e 0160     		str	r1, [r0]
 155 0010 FBE7     		b	.L9
 156              		.cfi_endproc
 157              	.LFE2:
 159              		.section	.text.Cocktail_getTask,"ax",%progbits
 160              		.align	1
 161              		.global	Cocktail_getTask
 162              		.syntax unified
 163              		.thumb
 164              		.thumb_func
 166              	Cocktail_getTask:
 167              	.LVL9:
 168              	.LFB3:
  45:fw-lib-stm32-CocktailOS/core/pcb.c **** 
  46:fw-lib-stm32-CocktailOS/core/pcb.c **** Cocktail_TaskTypeDef *
  47:fw-lib-stm32-CocktailOS/core/pcb.c **** Cocktail_getTask(Cocktail_PcbTypeDef *pcb)
  48:fw-lib-stm32-CocktailOS/core/pcb.c **** {
 169              		.loc 1 48 1 is_stmt 1 view -0
 170              		.cfi_startproc
 171              		@ args = 0, pretend = 0, frame = 0
 172              		@ frame_needed = 0, uses_anonymous_args = 0
 173              		@ link register save eliminated.
 174              		.loc 1 48 1 is_stmt 0 view .LVU42
 175 0000 0346     		mov	r3, r0
  49:fw-lib-stm32-CocktailOS/core/pcb.c ****     Cocktail_TaskTypeDef *task = pcb->task_queue;
 176              		.loc 1 49 5 is_stmt 1 view .LVU43
 177              		.loc 1 49 27 is_stmt 0 view .LVU44
 178 0002 0068     		ldr	r0, [r0]
 179              	.LVL10:
  50:fw-lib-stm32-CocktailOS/core/pcb.c ****     if(task == NULL) return NULL;
ARM GAS  /tmp/ccgpuuTA.s 			page 5


 180              		.loc 1 50 5 is_stmt 1 view .LVU45
 181              		.loc 1 50 7 is_stmt 0 view .LVU46
 182 0004 18B1     		cbz	r0, .L11
  51:fw-lib-stm32-CocktailOS/core/pcb.c **** 
  52:fw-lib-stm32-CocktailOS/core/pcb.c ****     pcb->task_queue       = task->next;
 183              		.loc 1 52 5 is_stmt 1 view .LVU47
 184              		.loc 1 52 33 is_stmt 0 view .LVU48
 185 0006 C268     		ldr	r2, [r0, #12]
 186              		.loc 1 52 27 view .LVU49
 187 0008 1A60     		str	r2, [r3]
  53:fw-lib-stm32-CocktailOS/core/pcb.c ****     pcb->task_queue->tail = task->tail;
 188              		.loc 1 53 5 is_stmt 1 view .LVU50
 189              		.loc 1 53 33 is_stmt 0 view .LVU51
 190 000a 0369     		ldr	r3, [r0, #16]
 191              	.LVL11:
 192              		.loc 1 53 27 view .LVU52
 193 000c 1361     		str	r3, [r2, #16]
  54:fw-lib-stm32-CocktailOS/core/pcb.c **** 
  55:fw-lib-stm32-CocktailOS/core/pcb.c ****     return task;
 194              		.loc 1 55 5 is_stmt 1 view .LVU53
 195              	.L11:
  56:fw-lib-stm32-CocktailOS/core/pcb.c **** }
 196              		.loc 1 56 1 is_stmt 0 view .LVU54
 197 000e 7047     		bx	lr
 198              		.cfi_endproc
 199              	.LFE3:
 201              		.section	.text.Cocktail_currentTask,"ax",%progbits
 202              		.align	1
 203              		.global	Cocktail_currentTask
 204              		.syntax unified
 205              		.thumb
 206              		.thumb_func
 208              	Cocktail_currentTask:
 209              	.LVL12:
 210              	.LFB4:
  57:fw-lib-stm32-CocktailOS/core/pcb.c **** 
  58:fw-lib-stm32-CocktailOS/core/pcb.c **** Cocktail_TaskTypeDef *
  59:fw-lib-stm32-CocktailOS/core/pcb.c **** Cocktail_currentTask(Cocktail_PcbTypeDef *pcb)
  60:fw-lib-stm32-CocktailOS/core/pcb.c **** {
 211              		.loc 1 60 1 is_stmt 1 view -0
 212              		.cfi_startproc
 213              		@ args = 0, pretend = 0, frame = 0
 214              		@ frame_needed = 0, uses_anonymous_args = 0
 215              		@ link register save eliminated.
  61:fw-lib-stm32-CocktailOS/core/pcb.c ****     return pcb->task_queue;
 216              		.loc 1 61 5 view .LVU56
  62:fw-lib-stm32-CocktailOS/core/pcb.c **** }
 217              		.loc 1 62 1 is_stmt 0 view .LVU57
 218 0000 0068     		ldr	r0, [r0]
 219              	.LVL13:
 220              		.loc 1 62 1 view .LVU58
 221 0002 7047     		bx	lr
 222              		.cfi_endproc
 223              	.LFE4:
 225              		.text
 226              	.Letext0:
 227              		.file 2 "fw-lib-stm32-CocktailOS/core/task.h"
ARM GAS  /tmp/ccgpuuTA.s 			page 6


 228              		.file 3 "fw-lib-stm32-CocktailOS/core/pcb.h"
 229              		.file 4 "/usr/share/gcc-arm-none-eabi-10.3-2021.10/arm-none-eabi/include/stdlib.h"
ARM GAS  /tmp/ccgpuuTA.s 			page 7

