ARM GAS  /tmp/ccxnnoCQ.s 			page 1


   1              		.cpu cortex-m7
   2              		.arch armv7e-m
   3              		.fpu fpv5-sp-d16
   4              		.eabi_attribute 27, 1
   5              		.eabi_attribute 28, 1
   6              		.eabi_attribute 20, 1
   7              		.eabi_attribute 21, 1
   8              		.eabi_attribute 23, 3
   9              		.eabi_attribute 24, 1
  10              		.eabi_attribute 25, 1
  11              		.eabi_attribute 26, 1
  12              		.eabi_attribute 30, 1
  13              		.eabi_attribute 34, 1
  14              		.eabi_attribute 18, 4
  15              		.file	"stm32f7xx_hal_tim.c"
  16              		.text
  17              	.Ltext0:
  18              		.cfi_sections	.debug_frame
  19              		.section	.text.HAL_TIM_Base_MspInit,"ax",%progbits
  20              		.align	1
  21              		.weak	HAL_TIM_Base_MspInit
  22              		.syntax unified
  23              		.thumb
  24              		.thumb_func
  26              	HAL_TIM_Base_MspInit:
  27              	.LVL0:
  28              	.LFB143:
  29              		.file 1 "Drivers/STM32F7xx_HAL_Driver/Src/stm32f7xx_hal_tim.c"
   1:Drivers/STM32F7xx_HAL_Driver/Src/stm32f7xx_hal_tim.c **** /**
   2:Drivers/STM32F7xx_HAL_Driver/Src/stm32f7xx_hal_tim.c ****   ******************************************************************************
   3:Drivers/STM32F7xx_HAL_Driver/Src/stm32f7xx_hal_tim.c ****   * @file    stm32f7xx_hal_tim.c
   4:Drivers/STM32F7xx_HAL_Driver/Src/stm32f7xx_hal_tim.c ****   * @author  MCD Application Team
   5:Drivers/STM32F7xx_HAL_Driver/Src/stm32f7xx_hal_tim.c ****   * @brief   TIM HAL module driver.
   6:Drivers/STM32F7xx_HAL_Driver/Src/stm32f7xx_hal_tim.c ****   *          This file provides firmware functions to manage the following
   7:Drivers/STM32F7xx_HAL_Driver/Src/stm32f7xx_hal_tim.c ****   *          functionalities of the Timer (TIM) peripheral:
   8:Drivers/STM32F7xx_HAL_Driver/Src/stm32f7xx_hal_tim.c ****   *           + TIM Time Base Initialization
   9:Drivers/STM32F7xx_HAL_Driver/Src/stm32f7xx_hal_tim.c ****   *           + TIM Time Base Start
  10:Drivers/STM32F7xx_HAL_Driver/Src/stm32f7xx_hal_tim.c ****   *           + TIM Time Base Start Interruption
  11:Drivers/STM32F7xx_HAL_Driver/Src/stm32f7xx_hal_tim.c ****   *           + TIM Time Base Start DMA
  12:Drivers/STM32F7xx_HAL_Driver/Src/stm32f7xx_hal_tim.c ****   *           + TIM Output Compare/PWM Initialization
  13:Drivers/STM32F7xx_HAL_Driver/Src/stm32f7xx_hal_tim.c ****   *           + TIM Output Compare/PWM Channel Configuration
  14:Drivers/STM32F7xx_HAL_Driver/Src/stm32f7xx_hal_tim.c ****   *           + TIM Output Compare/PWM  Start
  15:Drivers/STM32F7xx_HAL_Driver/Src/stm32f7xx_hal_tim.c ****   *           + TIM Output Compare/PWM  Start Interruption
  16:Drivers/STM32F7xx_HAL_Driver/Src/stm32f7xx_hal_tim.c ****   *           + TIM Output Compare/PWM Start DMA
  17:Drivers/STM32F7xx_HAL_Driver/Src/stm32f7xx_hal_tim.c ****   *           + TIM Input Capture Initialization
  18:Drivers/STM32F7xx_HAL_Driver/Src/stm32f7xx_hal_tim.c ****   *           + TIM Input Capture Channel Configuration
  19:Drivers/STM32F7xx_HAL_Driver/Src/stm32f7xx_hal_tim.c ****   *           + TIM Input Capture Start
  20:Drivers/STM32F7xx_HAL_Driver/Src/stm32f7xx_hal_tim.c ****   *           + TIM Input Capture Start Interruption
  21:Drivers/STM32F7xx_HAL_Driver/Src/stm32f7xx_hal_tim.c ****   *           + TIM Input Capture Start DMA
  22:Drivers/STM32F7xx_HAL_Driver/Src/stm32f7xx_hal_tim.c ****   *           + TIM One Pulse Initialization
  23:Drivers/STM32F7xx_HAL_Driver/Src/stm32f7xx_hal_tim.c ****   *           + TIM One Pulse Channel Configuration
  24:Drivers/STM32F7xx_HAL_Driver/Src/stm32f7xx_hal_tim.c ****   *           + TIM One Pulse Start
  25:Drivers/STM32F7xx_HAL_Driver/Src/stm32f7xx_hal_tim.c ****   *           + TIM Encoder Interface Initialization
  26:Drivers/STM32F7xx_HAL_Driver/Src/stm32f7xx_hal_tim.c ****   *           + TIM Encoder Interface Start
  27:Drivers/STM32F7xx_HAL_Driver/Src/stm32f7xx_hal_tim.c ****   *           + TIM Encoder Interface Start Interruption
  28:Drivers/STM32F7xx_HAL_Driver/Src/stm32f7xx_hal_tim.c ****   *           + TIM Encoder Interface Start DMA
  29:Drivers/STM32F7xx_HAL_Driver/Src/stm32f7xx_hal_tim.c ****   *           + Commutation Event configuration with Interruption and DMA
ARM GAS  /tmp/ccxnnoCQ.s 			page 2


  30:Drivers/STM32F7xx_HAL_Driver/Src/stm32f7xx_hal_tim.c ****   *           + TIM OCRef clear configuration
  31:Drivers/STM32F7xx_HAL_Driver/Src/stm32f7xx_hal_tim.c ****   *           + TIM External Clock configuration
  32:Drivers/STM32F7xx_HAL_Driver/Src/stm32f7xx_hal_tim.c ****   ******************************************************************************
  33:Drivers/STM32F7xx_HAL_Driver/Src/stm32f7xx_hal_tim.c ****   * @attention
  34:Drivers/STM32F7xx_HAL_Driver/Src/stm32f7xx_hal_tim.c ****   *
  35:Drivers/STM32F7xx_HAL_Driver/Src/stm32f7xx_hal_tim.c ****   * Copyright (c) 2017 STMicroelectronics.
  36:Drivers/STM32F7xx_HAL_Driver/Src/stm32f7xx_hal_tim.c ****   * All rights reserved.
  37:Drivers/STM32F7xx_HAL_Driver/Src/stm32f7xx_hal_tim.c ****   *
  38:Drivers/STM32F7xx_HAL_Driver/Src/stm32f7xx_hal_tim.c ****   * This software is licensed under terms that can be found in the LICENSE file
  39:Drivers/STM32F7xx_HAL_Driver/Src/stm32f7xx_hal_tim.c ****   * in the root directory of this software component.
  40:Drivers/STM32F7xx_HAL_Driver/Src/stm32f7xx_hal_tim.c ****   * If no LICENSE file comes with this software, it is provided AS-IS.
  41:Drivers/STM32F7xx_HAL_Driver/Src/stm32f7xx_hal_tim.c ****   *
  42:Drivers/STM32F7xx_HAL_Driver/Src/stm32f7xx_hal_tim.c ****   ******************************************************************************
  43:Drivers/STM32F7xx_HAL_Driver/Src/stm32f7xx_hal_tim.c ****   @verbatim
  44:Drivers/STM32F7xx_HAL_Driver/Src/stm32f7xx_hal_tim.c ****   ==============================================================================
  45:Drivers/STM32F7xx_HAL_Driver/Src/stm32f7xx_hal_tim.c ****                       ##### TIMER Generic features #####
  46:Drivers/STM32F7xx_HAL_Driver/Src/stm32f7xx_hal_tim.c ****   ==============================================================================
  47:Drivers/STM32F7xx_HAL_Driver/Src/stm32f7xx_hal_tim.c ****   [..] The Timer features include:
  48:Drivers/STM32F7xx_HAL_Driver/Src/stm32f7xx_hal_tim.c ****        (#) 16-bit up, down, up/down auto-reload counter.
  49:Drivers/STM32F7xx_HAL_Driver/Src/stm32f7xx_hal_tim.c ****        (#) 16-bit programmable prescaler allowing dividing (also on the fly) the
  50:Drivers/STM32F7xx_HAL_Driver/Src/stm32f7xx_hal_tim.c ****            counter clock frequency either by any factor between 1 and 65536.
  51:Drivers/STM32F7xx_HAL_Driver/Src/stm32f7xx_hal_tim.c ****        (#) Up to 4 independent channels for:
  52:Drivers/STM32F7xx_HAL_Driver/Src/stm32f7xx_hal_tim.c ****            (++) Input Capture
  53:Drivers/STM32F7xx_HAL_Driver/Src/stm32f7xx_hal_tim.c ****            (++) Output Compare
  54:Drivers/STM32F7xx_HAL_Driver/Src/stm32f7xx_hal_tim.c ****            (++) PWM generation (Edge and Center-aligned Mode)
  55:Drivers/STM32F7xx_HAL_Driver/Src/stm32f7xx_hal_tim.c ****            (++) One-pulse mode output
  56:Drivers/STM32F7xx_HAL_Driver/Src/stm32f7xx_hal_tim.c ****        (#) Synchronization circuit to control the timer with external signals and to interconnect
  57:Drivers/STM32F7xx_HAL_Driver/Src/stm32f7xx_hal_tim.c ****             several timers together.
  58:Drivers/STM32F7xx_HAL_Driver/Src/stm32f7xx_hal_tim.c ****        (#) Supports incremental encoder for positioning purposes
  59:Drivers/STM32F7xx_HAL_Driver/Src/stm32f7xx_hal_tim.c **** 
  60:Drivers/STM32F7xx_HAL_Driver/Src/stm32f7xx_hal_tim.c ****             ##### How to use this driver #####
  61:Drivers/STM32F7xx_HAL_Driver/Src/stm32f7xx_hal_tim.c ****   ==============================================================================
  62:Drivers/STM32F7xx_HAL_Driver/Src/stm32f7xx_hal_tim.c ****     [..]
  63:Drivers/STM32F7xx_HAL_Driver/Src/stm32f7xx_hal_tim.c ****      (#) Initialize the TIM low level resources by implementing the following functions
  64:Drivers/STM32F7xx_HAL_Driver/Src/stm32f7xx_hal_tim.c ****          depending on the selected feature:
  65:Drivers/STM32F7xx_HAL_Driver/Src/stm32f7xx_hal_tim.c ****            (++) Time Base : HAL_TIM_Base_MspInit()
  66:Drivers/STM32F7xx_HAL_Driver/Src/stm32f7xx_hal_tim.c ****            (++) Input Capture : HAL_TIM_IC_MspInit()
  67:Drivers/STM32F7xx_HAL_Driver/Src/stm32f7xx_hal_tim.c ****            (++) Output Compare : HAL_TIM_OC_MspInit()
  68:Drivers/STM32F7xx_HAL_Driver/Src/stm32f7xx_hal_tim.c ****            (++) PWM generation : HAL_TIM_PWM_MspInit()
  69:Drivers/STM32F7xx_HAL_Driver/Src/stm32f7xx_hal_tim.c ****            (++) One-pulse mode output : HAL_TIM_OnePulse_MspInit()
  70:Drivers/STM32F7xx_HAL_Driver/Src/stm32f7xx_hal_tim.c ****            (++) Encoder mode output : HAL_TIM_Encoder_MspInit()
  71:Drivers/STM32F7xx_HAL_Driver/Src/stm32f7xx_hal_tim.c **** 
  72:Drivers/STM32F7xx_HAL_Driver/Src/stm32f7xx_hal_tim.c ****      (#) Initialize the TIM low level resources :
  73:Drivers/STM32F7xx_HAL_Driver/Src/stm32f7xx_hal_tim.c ****         (##) Enable the TIM interface clock using __HAL_RCC_TIMx_CLK_ENABLE();
  74:Drivers/STM32F7xx_HAL_Driver/Src/stm32f7xx_hal_tim.c ****         (##) TIM pins configuration
  75:Drivers/STM32F7xx_HAL_Driver/Src/stm32f7xx_hal_tim.c ****             (+++) Enable the clock for the TIM GPIOs using the following function:
  76:Drivers/STM32F7xx_HAL_Driver/Src/stm32f7xx_hal_tim.c ****              __HAL_RCC_GPIOx_CLK_ENABLE();
  77:Drivers/STM32F7xx_HAL_Driver/Src/stm32f7xx_hal_tim.c ****             (+++) Configure these TIM pins in Alternate function mode using HAL_GPIO_Init();
  78:Drivers/STM32F7xx_HAL_Driver/Src/stm32f7xx_hal_tim.c **** 
  79:Drivers/STM32F7xx_HAL_Driver/Src/stm32f7xx_hal_tim.c ****      (#) The external Clock can be configured, if needed (the default clock is the
  80:Drivers/STM32F7xx_HAL_Driver/Src/stm32f7xx_hal_tim.c ****          internal clock from the APBx), using the following function:
  81:Drivers/STM32F7xx_HAL_Driver/Src/stm32f7xx_hal_tim.c ****          HAL_TIM_ConfigClockSource, the clock configuration should be done before
  82:Drivers/STM32F7xx_HAL_Driver/Src/stm32f7xx_hal_tim.c ****          any start function.
  83:Drivers/STM32F7xx_HAL_Driver/Src/stm32f7xx_hal_tim.c **** 
  84:Drivers/STM32F7xx_HAL_Driver/Src/stm32f7xx_hal_tim.c ****      (#) Configure the TIM in the desired functioning mode using one of the
  85:Drivers/STM32F7xx_HAL_Driver/Src/stm32f7xx_hal_tim.c ****        Initialization function of this driver:
  86:Drivers/STM32F7xx_HAL_Driver/Src/stm32f7xx_hal_tim.c ****        (++) HAL_TIM_Base_Init: to use the Timer to generate a simple time base
ARM GAS  /tmp/ccxnnoCQ.s 			page 3


  87:Drivers/STM32F7xx_HAL_Driver/Src/stm32f7xx_hal_tim.c ****        (++) HAL_TIM_OC_Init and HAL_TIM_OC_ConfigChannel: to use the Timer to generate an
  88:Drivers/STM32F7xx_HAL_Driver/Src/stm32f7xx_hal_tim.c ****             Output Compare signal.
  89:Drivers/STM32F7xx_HAL_Driver/Src/stm32f7xx_hal_tim.c ****        (++) HAL_TIM_PWM_Init and HAL_TIM_PWM_ConfigChannel: to use the Timer to generate a
  90:Drivers/STM32F7xx_HAL_Driver/Src/stm32f7xx_hal_tim.c ****             PWM signal.
  91:Drivers/STM32F7xx_HAL_Driver/Src/stm32f7xx_hal_tim.c ****        (++) HAL_TIM_IC_Init and HAL_TIM_IC_ConfigChannel: to use the Timer to measure an
  92:Drivers/STM32F7xx_HAL_Driver/Src/stm32f7xx_hal_tim.c ****             external signal.
  93:Drivers/STM32F7xx_HAL_Driver/Src/stm32f7xx_hal_tim.c ****        (++) HAL_TIM_OnePulse_Init and HAL_TIM_OnePulse_ConfigChannel: to use the Timer
  94:Drivers/STM32F7xx_HAL_Driver/Src/stm32f7xx_hal_tim.c ****             in One Pulse Mode.
  95:Drivers/STM32F7xx_HAL_Driver/Src/stm32f7xx_hal_tim.c ****        (++) HAL_TIM_Encoder_Init: to use the Timer Encoder Interface.
  96:Drivers/STM32F7xx_HAL_Driver/Src/stm32f7xx_hal_tim.c **** 
  97:Drivers/STM32F7xx_HAL_Driver/Src/stm32f7xx_hal_tim.c ****      (#) Activate the TIM peripheral using one of the start functions depending from the feature us
  98:Drivers/STM32F7xx_HAL_Driver/Src/stm32f7xx_hal_tim.c ****            (++) Time Base : HAL_TIM_Base_Start(), HAL_TIM_Base_Start_DMA(), HAL_TIM_Base_Start_IT()
  99:Drivers/STM32F7xx_HAL_Driver/Src/stm32f7xx_hal_tim.c ****            (++) Input Capture :  HAL_TIM_IC_Start(), HAL_TIM_IC_Start_DMA(), HAL_TIM_IC_Start_IT()
 100:Drivers/STM32F7xx_HAL_Driver/Src/stm32f7xx_hal_tim.c ****            (++) Output Compare : HAL_TIM_OC_Start(), HAL_TIM_OC_Start_DMA(), HAL_TIM_OC_Start_IT()
 101:Drivers/STM32F7xx_HAL_Driver/Src/stm32f7xx_hal_tim.c ****            (++) PWM generation : HAL_TIM_PWM_Start(), HAL_TIM_PWM_Start_DMA(), HAL_TIM_PWM_Start_IT
 102:Drivers/STM32F7xx_HAL_Driver/Src/stm32f7xx_hal_tim.c ****            (++) One-pulse mode output : HAL_TIM_OnePulse_Start(), HAL_TIM_OnePulse_Start_IT()
 103:Drivers/STM32F7xx_HAL_Driver/Src/stm32f7xx_hal_tim.c ****            (++) Encoder mode output : HAL_TIM_Encoder_Start(), HAL_TIM_Encoder_Start_DMA(), HAL_TIM
 104:Drivers/STM32F7xx_HAL_Driver/Src/stm32f7xx_hal_tim.c **** 
 105:Drivers/STM32F7xx_HAL_Driver/Src/stm32f7xx_hal_tim.c ****      (#) The DMA Burst is managed with the two following functions:
 106:Drivers/STM32F7xx_HAL_Driver/Src/stm32f7xx_hal_tim.c ****          HAL_TIM_DMABurst_WriteStart()
 107:Drivers/STM32F7xx_HAL_Driver/Src/stm32f7xx_hal_tim.c ****          HAL_TIM_DMABurst_ReadStart()
 108:Drivers/STM32F7xx_HAL_Driver/Src/stm32f7xx_hal_tim.c **** 
 109:Drivers/STM32F7xx_HAL_Driver/Src/stm32f7xx_hal_tim.c ****     *** Callback registration ***
 110:Drivers/STM32F7xx_HAL_Driver/Src/stm32f7xx_hal_tim.c ****   =============================================
 111:Drivers/STM32F7xx_HAL_Driver/Src/stm32f7xx_hal_tim.c **** 
 112:Drivers/STM32F7xx_HAL_Driver/Src/stm32f7xx_hal_tim.c ****   [..]
 113:Drivers/STM32F7xx_HAL_Driver/Src/stm32f7xx_hal_tim.c ****   The compilation define  USE_HAL_TIM_REGISTER_CALLBACKS when set to 1
 114:Drivers/STM32F7xx_HAL_Driver/Src/stm32f7xx_hal_tim.c ****   allows the user to configure dynamically the driver callbacks.
 115:Drivers/STM32F7xx_HAL_Driver/Src/stm32f7xx_hal_tim.c **** 
 116:Drivers/STM32F7xx_HAL_Driver/Src/stm32f7xx_hal_tim.c ****   [..]
 117:Drivers/STM32F7xx_HAL_Driver/Src/stm32f7xx_hal_tim.c ****   Use Function HAL_TIM_RegisterCallback() to register a callback.
 118:Drivers/STM32F7xx_HAL_Driver/Src/stm32f7xx_hal_tim.c ****   HAL_TIM_RegisterCallback() takes as parameters the HAL peripheral handle,
 119:Drivers/STM32F7xx_HAL_Driver/Src/stm32f7xx_hal_tim.c ****   the Callback ID and a pointer to the user callback function.
 120:Drivers/STM32F7xx_HAL_Driver/Src/stm32f7xx_hal_tim.c **** 
 121:Drivers/STM32F7xx_HAL_Driver/Src/stm32f7xx_hal_tim.c ****   [..]
 122:Drivers/STM32F7xx_HAL_Driver/Src/stm32f7xx_hal_tim.c ****   Use function HAL_TIM_UnRegisterCallback() to reset a callback to the default
 123:Drivers/STM32F7xx_HAL_Driver/Src/stm32f7xx_hal_tim.c ****   weak function.
 124:Drivers/STM32F7xx_HAL_Driver/Src/stm32f7xx_hal_tim.c ****   HAL_TIM_UnRegisterCallback takes as parameters the HAL peripheral handle,
 125:Drivers/STM32F7xx_HAL_Driver/Src/stm32f7xx_hal_tim.c ****   and the Callback ID.
 126:Drivers/STM32F7xx_HAL_Driver/Src/stm32f7xx_hal_tim.c **** 
 127:Drivers/STM32F7xx_HAL_Driver/Src/stm32f7xx_hal_tim.c ****   [..]
 128:Drivers/STM32F7xx_HAL_Driver/Src/stm32f7xx_hal_tim.c ****   These functions allow to register/unregister following callbacks:
 129:Drivers/STM32F7xx_HAL_Driver/Src/stm32f7xx_hal_tim.c ****     (+) Base_MspInitCallback              : TIM Base Msp Init Callback.
 130:Drivers/STM32F7xx_HAL_Driver/Src/stm32f7xx_hal_tim.c ****     (+) Base_MspDeInitCallback            : TIM Base Msp DeInit Callback.
 131:Drivers/STM32F7xx_HAL_Driver/Src/stm32f7xx_hal_tim.c ****     (+) IC_MspInitCallback                : TIM IC Msp Init Callback.
 132:Drivers/STM32F7xx_HAL_Driver/Src/stm32f7xx_hal_tim.c ****     (+) IC_MspDeInitCallback              : TIM IC Msp DeInit Callback.
 133:Drivers/STM32F7xx_HAL_Driver/Src/stm32f7xx_hal_tim.c ****     (+) OC_MspInitCallback                : TIM OC Msp Init Callback.
 134:Drivers/STM32F7xx_HAL_Driver/Src/stm32f7xx_hal_tim.c ****     (+) OC_MspDeInitCallback              : TIM OC Msp DeInit Callback.
 135:Drivers/STM32F7xx_HAL_Driver/Src/stm32f7xx_hal_tim.c ****     (+) PWM_MspInitCallback               : TIM PWM Msp Init Callback.
 136:Drivers/STM32F7xx_HAL_Driver/Src/stm32f7xx_hal_tim.c ****     (+) PWM_MspDeInitCallback             : TIM PWM Msp DeInit Callback.
 137:Drivers/STM32F7xx_HAL_Driver/Src/stm32f7xx_hal_tim.c ****     (+) OnePulse_MspInitCallback          : TIM One Pulse Msp Init Callback.
 138:Drivers/STM32F7xx_HAL_Driver/Src/stm32f7xx_hal_tim.c ****     (+) OnePulse_MspDeInitCallback        : TIM One Pulse Msp DeInit Callback.
 139:Drivers/STM32F7xx_HAL_Driver/Src/stm32f7xx_hal_tim.c ****     (+) Encoder_MspInitCallback           : TIM Encoder Msp Init Callback.
 140:Drivers/STM32F7xx_HAL_Driver/Src/stm32f7xx_hal_tim.c ****     (+) Encoder_MspDeInitCallback         : TIM Encoder Msp DeInit Callback.
 141:Drivers/STM32F7xx_HAL_Driver/Src/stm32f7xx_hal_tim.c ****     (+) HallSensor_MspInitCallback        : TIM Hall Sensor Msp Init Callback.
 142:Drivers/STM32F7xx_HAL_Driver/Src/stm32f7xx_hal_tim.c ****     (+) HallSensor_MspDeInitCallback      : TIM Hall Sensor Msp DeInit Callback.
 143:Drivers/STM32F7xx_HAL_Driver/Src/stm32f7xx_hal_tim.c ****     (+) PeriodElapsedCallback             : TIM Period Elapsed Callback.
ARM GAS  /tmp/ccxnnoCQ.s 			page 4


 144:Drivers/STM32F7xx_HAL_Driver/Src/stm32f7xx_hal_tim.c ****     (+) PeriodElapsedHalfCpltCallback     : TIM Period Elapsed half complete Callback.
 145:Drivers/STM32F7xx_HAL_Driver/Src/stm32f7xx_hal_tim.c ****     (+) TriggerCallback                   : TIM Trigger Callback.
 146:Drivers/STM32F7xx_HAL_Driver/Src/stm32f7xx_hal_tim.c ****     (+) TriggerHalfCpltCallback           : TIM Trigger half complete Callback.
 147:Drivers/STM32F7xx_HAL_Driver/Src/stm32f7xx_hal_tim.c ****     (+) IC_CaptureCallback                : TIM Input Capture Callback.
 148:Drivers/STM32F7xx_HAL_Driver/Src/stm32f7xx_hal_tim.c ****     (+) IC_CaptureHalfCpltCallback        : TIM Input Capture half complete Callback.
 149:Drivers/STM32F7xx_HAL_Driver/Src/stm32f7xx_hal_tim.c ****     (+) OC_DelayElapsedCallback           : TIM Output Compare Delay Elapsed Callback.
 150:Drivers/STM32F7xx_HAL_Driver/Src/stm32f7xx_hal_tim.c ****     (+) PWM_PulseFinishedCallback         : TIM PWM Pulse Finished Callback.
 151:Drivers/STM32F7xx_HAL_Driver/Src/stm32f7xx_hal_tim.c ****     (+) PWM_PulseFinishedHalfCpltCallback : TIM PWM Pulse Finished half complete Callback.
 152:Drivers/STM32F7xx_HAL_Driver/Src/stm32f7xx_hal_tim.c ****     (+) ErrorCallback                     : TIM Error Callback.
 153:Drivers/STM32F7xx_HAL_Driver/Src/stm32f7xx_hal_tim.c ****     (+) CommutationCallback               : TIM Commutation Callback.
 154:Drivers/STM32F7xx_HAL_Driver/Src/stm32f7xx_hal_tim.c ****     (+) CommutationHalfCpltCallback       : TIM Commutation half complete Callback.
 155:Drivers/STM32F7xx_HAL_Driver/Src/stm32f7xx_hal_tim.c ****     (+) BreakCallback                     : TIM Break Callback.
 156:Drivers/STM32F7xx_HAL_Driver/Src/stm32f7xx_hal_tim.c ****     (+) Break2Callback                    : TIM Break2 Callback.
 157:Drivers/STM32F7xx_HAL_Driver/Src/stm32f7xx_hal_tim.c **** 
 158:Drivers/STM32F7xx_HAL_Driver/Src/stm32f7xx_hal_tim.c ****   [..]
 159:Drivers/STM32F7xx_HAL_Driver/Src/stm32f7xx_hal_tim.c **** By default, after the Init and when the state is HAL_TIM_STATE_RESET
 160:Drivers/STM32F7xx_HAL_Driver/Src/stm32f7xx_hal_tim.c **** all interrupt callbacks are set to the corresponding weak functions:
 161:Drivers/STM32F7xx_HAL_Driver/Src/stm32f7xx_hal_tim.c ****   examples HAL_TIM_TriggerCallback(), HAL_TIM_ErrorCallback().
 162:Drivers/STM32F7xx_HAL_Driver/Src/stm32f7xx_hal_tim.c **** 
 163:Drivers/STM32F7xx_HAL_Driver/Src/stm32f7xx_hal_tim.c ****   [..]
 164:Drivers/STM32F7xx_HAL_Driver/Src/stm32f7xx_hal_tim.c ****   Exception done for MspInit and MspDeInit functions that are reset to the legacy weak
 165:Drivers/STM32F7xx_HAL_Driver/Src/stm32f7xx_hal_tim.c ****   functionalities in the Init / DeInit only when these callbacks are null
 166:Drivers/STM32F7xx_HAL_Driver/Src/stm32f7xx_hal_tim.c ****   (not registered beforehand). If not, MspInit or MspDeInit are not null, the Init / DeInit
 167:Drivers/STM32F7xx_HAL_Driver/Src/stm32f7xx_hal_tim.c ****     keep and use the user MspInit / MspDeInit callbacks(registered beforehand)
 168:Drivers/STM32F7xx_HAL_Driver/Src/stm32f7xx_hal_tim.c **** 
 169:Drivers/STM32F7xx_HAL_Driver/Src/stm32f7xx_hal_tim.c ****   [..]
 170:Drivers/STM32F7xx_HAL_Driver/Src/stm32f7xx_hal_tim.c ****     Callbacks can be registered / unregistered in HAL_TIM_STATE_READY state only.
 171:Drivers/STM32F7xx_HAL_Driver/Src/stm32f7xx_hal_tim.c ****     Exception done MspInit / MspDeInit that can be registered / unregistered
 172:Drivers/STM32F7xx_HAL_Driver/Src/stm32f7xx_hal_tim.c ****     in HAL_TIM_STATE_READY or HAL_TIM_STATE_RESET state,
 173:Drivers/STM32F7xx_HAL_Driver/Src/stm32f7xx_hal_tim.c ****     thus registered(user) MspInit / DeInit callbacks can be used during the Init / DeInit.
 174:Drivers/STM32F7xx_HAL_Driver/Src/stm32f7xx_hal_tim.c ****   In that case first register the MspInit/MspDeInit user callbacks
 175:Drivers/STM32F7xx_HAL_Driver/Src/stm32f7xx_hal_tim.c ****       using HAL_TIM_RegisterCallback() before calling DeInit or Init function.
 176:Drivers/STM32F7xx_HAL_Driver/Src/stm32f7xx_hal_tim.c **** 
 177:Drivers/STM32F7xx_HAL_Driver/Src/stm32f7xx_hal_tim.c ****   [..]
 178:Drivers/STM32F7xx_HAL_Driver/Src/stm32f7xx_hal_tim.c ****       When The compilation define USE_HAL_TIM_REGISTER_CALLBACKS is set to 0 or
 179:Drivers/STM32F7xx_HAL_Driver/Src/stm32f7xx_hal_tim.c ****       not defined, the callback registration feature is not available and all callbacks
 180:Drivers/STM32F7xx_HAL_Driver/Src/stm32f7xx_hal_tim.c ****       are set to the corresponding weak functions.
 181:Drivers/STM32F7xx_HAL_Driver/Src/stm32f7xx_hal_tim.c **** 
 182:Drivers/STM32F7xx_HAL_Driver/Src/stm32f7xx_hal_tim.c ****   @endverbatim
 183:Drivers/STM32F7xx_HAL_Driver/Src/stm32f7xx_hal_tim.c ****   ******************************************************************************
 184:Drivers/STM32F7xx_HAL_Driver/Src/stm32f7xx_hal_tim.c ****   */
 185:Drivers/STM32F7xx_HAL_Driver/Src/stm32f7xx_hal_tim.c **** 
 186:Drivers/STM32F7xx_HAL_Driver/Src/stm32f7xx_hal_tim.c **** /* Includes ------------------------------------------------------------------*/
 187:Drivers/STM32F7xx_HAL_Driver/Src/stm32f7xx_hal_tim.c **** #include "stm32f7xx_hal.h"
 188:Drivers/STM32F7xx_HAL_Driver/Src/stm32f7xx_hal_tim.c **** 
 189:Drivers/STM32F7xx_HAL_Driver/Src/stm32f7xx_hal_tim.c **** /** @addtogroup STM32F7xx_HAL_Driver
 190:Drivers/STM32F7xx_HAL_Driver/Src/stm32f7xx_hal_tim.c ****   * @{
 191:Drivers/STM32F7xx_HAL_Driver/Src/stm32f7xx_hal_tim.c ****   */
 192:Drivers/STM32F7xx_HAL_Driver/Src/stm32f7xx_hal_tim.c **** 
 193:Drivers/STM32F7xx_HAL_Driver/Src/stm32f7xx_hal_tim.c **** /** @defgroup TIM TIM
 194:Drivers/STM32F7xx_HAL_Driver/Src/stm32f7xx_hal_tim.c ****   * @brief TIM HAL module driver
 195:Drivers/STM32F7xx_HAL_Driver/Src/stm32f7xx_hal_tim.c ****   * @{
 196:Drivers/STM32F7xx_HAL_Driver/Src/stm32f7xx_hal_tim.c ****   */
 197:Drivers/STM32F7xx_HAL_Driver/Src/stm32f7xx_hal_tim.c **** 
 198:Drivers/STM32F7xx_HAL_Driver/Src/stm32f7xx_hal_tim.c **** #ifdef HAL_TIM_MODULE_ENABLED
 199:Drivers/STM32F7xx_HAL_Driver/Src/stm32f7xx_hal_tim.c **** 
 200:Drivers/STM32F7xx_HAL_Driver/Src/stm32f7xx_hal_tim.c **** /* Private typedef -----------------------------------------------------------*/
ARM GAS  /tmp/ccxnnoCQ.s 			page 5


 201:Drivers/STM32F7xx_HAL_Driver/Src/stm32f7xx_hal_tim.c **** /* Private define ------------------------------------------------------------*/
 202:Drivers/STM32F7xx_HAL_Driver/Src/stm32f7xx_hal_tim.c **** /* Private macros ------------------------------------------------------------*/
 203:Drivers/STM32F7xx_HAL_Driver/Src/stm32f7xx_hal_tim.c **** /* Private variables ---------------------------------------------------------*/
 204:Drivers/STM32F7xx_HAL_Driver/Src/stm32f7xx_hal_tim.c **** /* Private function prototypes -----------------------------------------------*/
 205:Drivers/STM32F7xx_HAL_Driver/Src/stm32f7xx_hal_tim.c **** /** @addtogroup TIM_Private_Functions
 206:Drivers/STM32F7xx_HAL_Driver/Src/stm32f7xx_hal_tim.c ****   * @{
 207:Drivers/STM32F7xx_HAL_Driver/Src/stm32f7xx_hal_tim.c ****   */
 208:Drivers/STM32F7xx_HAL_Driver/Src/stm32f7xx_hal_tim.c **** static void TIM_OC1_SetConfig(TIM_TypeDef *TIMx, const TIM_OC_InitTypeDef *OC_Config);
 209:Drivers/STM32F7xx_HAL_Driver/Src/stm32f7xx_hal_tim.c **** static void TIM_OC3_SetConfig(TIM_TypeDef *TIMx, const TIM_OC_InitTypeDef *OC_Config);
 210:Drivers/STM32F7xx_HAL_Driver/Src/stm32f7xx_hal_tim.c **** static void TIM_OC4_SetConfig(TIM_TypeDef *TIMx, const TIM_OC_InitTypeDef *OC_Config);
 211:Drivers/STM32F7xx_HAL_Driver/Src/stm32f7xx_hal_tim.c **** static void TIM_OC5_SetConfig(TIM_TypeDef *TIMx, const TIM_OC_InitTypeDef *OC_Config);
 212:Drivers/STM32F7xx_HAL_Driver/Src/stm32f7xx_hal_tim.c **** static void TIM_OC6_SetConfig(TIM_TypeDef *TIMx, const TIM_OC_InitTypeDef *OC_Config);
 213:Drivers/STM32F7xx_HAL_Driver/Src/stm32f7xx_hal_tim.c **** static void TIM_TI1_ConfigInputStage(TIM_TypeDef *TIMx, uint32_t TIM_ICPolarity, uint32_t TIM_ICFil
 214:Drivers/STM32F7xx_HAL_Driver/Src/stm32f7xx_hal_tim.c **** static void TIM_TI2_SetConfig(TIM_TypeDef *TIMx, uint32_t TIM_ICPolarity, uint32_t TIM_ICSelection,
 215:Drivers/STM32F7xx_HAL_Driver/Src/stm32f7xx_hal_tim.c ****                               uint32_t TIM_ICFilter);
 216:Drivers/STM32F7xx_HAL_Driver/Src/stm32f7xx_hal_tim.c **** static void TIM_TI2_ConfigInputStage(TIM_TypeDef *TIMx, uint32_t TIM_ICPolarity, uint32_t TIM_ICFil
 217:Drivers/STM32F7xx_HAL_Driver/Src/stm32f7xx_hal_tim.c **** static void TIM_TI3_SetConfig(TIM_TypeDef *TIMx, uint32_t TIM_ICPolarity, uint32_t TIM_ICSelection,
 218:Drivers/STM32F7xx_HAL_Driver/Src/stm32f7xx_hal_tim.c ****                               uint32_t TIM_ICFilter);
 219:Drivers/STM32F7xx_HAL_Driver/Src/stm32f7xx_hal_tim.c **** static void TIM_TI4_SetConfig(TIM_TypeDef *TIMx, uint32_t TIM_ICPolarity, uint32_t TIM_ICSelection,
 220:Drivers/STM32F7xx_HAL_Driver/Src/stm32f7xx_hal_tim.c ****                               uint32_t TIM_ICFilter);
 221:Drivers/STM32F7xx_HAL_Driver/Src/stm32f7xx_hal_tim.c **** static void TIM_ITRx_SetConfig(TIM_TypeDef *TIMx, uint32_t InputTriggerSource);
 222:Drivers/STM32F7xx_HAL_Driver/Src/stm32f7xx_hal_tim.c **** static void TIM_DMAPeriodElapsedCplt(DMA_HandleTypeDef *hdma);
 223:Drivers/STM32F7xx_HAL_Driver/Src/stm32f7xx_hal_tim.c **** static void TIM_DMAPeriodElapsedHalfCplt(DMA_HandleTypeDef *hdma);
 224:Drivers/STM32F7xx_HAL_Driver/Src/stm32f7xx_hal_tim.c **** static void TIM_DMADelayPulseCplt(DMA_HandleTypeDef *hdma);
 225:Drivers/STM32F7xx_HAL_Driver/Src/stm32f7xx_hal_tim.c **** static void TIM_DMATriggerCplt(DMA_HandleTypeDef *hdma);
 226:Drivers/STM32F7xx_HAL_Driver/Src/stm32f7xx_hal_tim.c **** static void TIM_DMATriggerHalfCplt(DMA_HandleTypeDef *hdma);
 227:Drivers/STM32F7xx_HAL_Driver/Src/stm32f7xx_hal_tim.c **** static HAL_StatusTypeDef TIM_SlaveTimer_SetConfig(TIM_HandleTypeDef *htim,
 228:Drivers/STM32F7xx_HAL_Driver/Src/stm32f7xx_hal_tim.c ****                                                   const TIM_SlaveConfigTypeDef *sSlaveConfig);
 229:Drivers/STM32F7xx_HAL_Driver/Src/stm32f7xx_hal_tim.c **** /**
 230:Drivers/STM32F7xx_HAL_Driver/Src/stm32f7xx_hal_tim.c ****   * @}
 231:Drivers/STM32F7xx_HAL_Driver/Src/stm32f7xx_hal_tim.c ****   */
 232:Drivers/STM32F7xx_HAL_Driver/Src/stm32f7xx_hal_tim.c **** /* Exported functions --------------------------------------------------------*/
 233:Drivers/STM32F7xx_HAL_Driver/Src/stm32f7xx_hal_tim.c **** 
 234:Drivers/STM32F7xx_HAL_Driver/Src/stm32f7xx_hal_tim.c **** /** @defgroup TIM_Exported_Functions TIM Exported Functions
 235:Drivers/STM32F7xx_HAL_Driver/Src/stm32f7xx_hal_tim.c ****   * @{
 236:Drivers/STM32F7xx_HAL_Driver/Src/stm32f7xx_hal_tim.c ****   */
 237:Drivers/STM32F7xx_HAL_Driver/Src/stm32f7xx_hal_tim.c **** 
 238:Drivers/STM32F7xx_HAL_Driver/Src/stm32f7xx_hal_tim.c **** /** @defgroup TIM_Exported_Functions_Group1 TIM Time Base functions
 239:Drivers/STM32F7xx_HAL_Driver/Src/stm32f7xx_hal_tim.c ****   *  @brief    Time Base functions
 240:Drivers/STM32F7xx_HAL_Driver/Src/stm32f7xx_hal_tim.c ****   *
 241:Drivers/STM32F7xx_HAL_Driver/Src/stm32f7xx_hal_tim.c **** @verbatim
 242:Drivers/STM32F7xx_HAL_Driver/Src/stm32f7xx_hal_tim.c ****   ==============================================================================
 243:Drivers/STM32F7xx_HAL_Driver/Src/stm32f7xx_hal_tim.c ****               ##### Time Base functions #####
 244:Drivers/STM32F7xx_HAL_Driver/Src/stm32f7xx_hal_tim.c ****   ==============================================================================
 245:Drivers/STM32F7xx_HAL_Driver/Src/stm32f7xx_hal_tim.c ****   [..]
 246:Drivers/STM32F7xx_HAL_Driver/Src/stm32f7xx_hal_tim.c ****     This section provides functions allowing to:
 247:Drivers/STM32F7xx_HAL_Driver/Src/stm32f7xx_hal_tim.c ****     (+) Initialize and configure the TIM base.
 248:Drivers/STM32F7xx_HAL_Driver/Src/stm32f7xx_hal_tim.c ****     (+) De-initialize the TIM base.
 249:Drivers/STM32F7xx_HAL_Driver/Src/stm32f7xx_hal_tim.c ****     (+) Start the Time Base.
 250:Drivers/STM32F7xx_HAL_Driver/Src/stm32f7xx_hal_tim.c ****     (+) Stop the Time Base.
 251:Drivers/STM32F7xx_HAL_Driver/Src/stm32f7xx_hal_tim.c ****     (+) Start the Time Base and enable interrupt.
 252:Drivers/STM32F7xx_HAL_Driver/Src/stm32f7xx_hal_tim.c ****     (+) Stop the Time Base and disable interrupt.
 253:Drivers/STM32F7xx_HAL_Driver/Src/stm32f7xx_hal_tim.c ****     (+) Start the Time Base and enable DMA transfer.
 254:Drivers/STM32F7xx_HAL_Driver/Src/stm32f7xx_hal_tim.c ****     (+) Stop the Time Base and disable DMA transfer.
 255:Drivers/STM32F7xx_HAL_Driver/Src/stm32f7xx_hal_tim.c **** 
 256:Drivers/STM32F7xx_HAL_Driver/Src/stm32f7xx_hal_tim.c **** @endverbatim
 257:Drivers/STM32F7xx_HAL_Driver/Src/stm32f7xx_hal_tim.c ****   * @{
ARM GAS  /tmp/ccxnnoCQ.s 			page 6


 258:Drivers/STM32F7xx_HAL_Driver/Src/stm32f7xx_hal_tim.c ****   */
 259:Drivers/STM32F7xx_HAL_Driver/Src/stm32f7xx_hal_tim.c **** /**
 260:Drivers/STM32F7xx_HAL_Driver/Src/stm32f7xx_hal_tim.c ****   * @brief  Initializes the TIM Time base Unit according to the specified
 261:Drivers/STM32F7xx_HAL_Driver/Src/stm32f7xx_hal_tim.c ****   *         parameters in the TIM_HandleTypeDef and initialize the associated handle.
 262:Drivers/STM32F7xx_HAL_Driver/Src/stm32f7xx_hal_tim.c ****   * @note   Switching from Center Aligned counter mode to Edge counter mode (or reverse)
 263:Drivers/STM32F7xx_HAL_Driver/Src/stm32f7xx_hal_tim.c ****   *         requires a timer reset to avoid unexpected direction
 264:Drivers/STM32F7xx_HAL_Driver/Src/stm32f7xx_hal_tim.c ****   *         due to DIR bit readonly in center aligned mode.
 265:Drivers/STM32F7xx_HAL_Driver/Src/stm32f7xx_hal_tim.c ****   *         Ex: call @ref HAL_TIM_Base_DeInit() before HAL_TIM_Base_Init()
 266:Drivers/STM32F7xx_HAL_Driver/Src/stm32f7xx_hal_tim.c ****   * @param  htim TIM Base handle
 267:Drivers/STM32F7xx_HAL_Driver/Src/stm32f7xx_hal_tim.c ****   * @retval HAL status
 268:Drivers/STM32F7xx_HAL_Driver/Src/stm32f7xx_hal_tim.c ****   */
 269:Drivers/STM32F7xx_HAL_Driver/Src/stm32f7xx_hal_tim.c **** HAL_StatusTypeDef HAL_TIM_Base_Init(TIM_HandleTypeDef *htim)
 270:Drivers/STM32F7xx_HAL_Driver/Src/stm32f7xx_hal_tim.c **** {
 271:Drivers/STM32F7xx_HAL_Driver/Src/stm32f7xx_hal_tim.c ****   /* Check the TIM handle allocation */
 272:Drivers/STM32F7xx_HAL_Driver/Src/stm32f7xx_hal_tim.c ****   if (htim == NULL)
 273:Drivers/STM32F7xx_HAL_Driver/Src/stm32f7xx_hal_tim.c ****   {
 274:Drivers/STM32F7xx_HAL_Driver/Src/stm32f7xx_hal_tim.c ****     return HAL_ERROR;
 275:Drivers/STM32F7xx_HAL_Driver/Src/stm32f7xx_hal_tim.c ****   }
 276:Drivers/STM32F7xx_HAL_Driver/Src/stm32f7xx_hal_tim.c **** 
 277:Drivers/STM32F7xx_HAL_Driver/Src/stm32f7xx_hal_tim.c ****   /* Check the parameters */
 278:Drivers/STM32F7xx_HAL_Driver/Src/stm32f7xx_hal_tim.c ****   assert_param(IS_TIM_INSTANCE(htim->Instance));
 279:Drivers/STM32F7xx_HAL_Driver/Src/stm32f7xx_hal_tim.c ****   assert_param(IS_TIM_COUNTER_MODE(htim->Init.CounterMode));
 280:Drivers/STM32F7xx_HAL_Driver/Src/stm32f7xx_hal_tim.c ****   assert_param(IS_TIM_CLOCKDIVISION_DIV(htim->Init.ClockDivision));
 281:Drivers/STM32F7xx_HAL_Driver/Src/stm32f7xx_hal_tim.c ****   assert_param(IS_TIM_PERIOD(htim, htim->Init.Period));
 282:Drivers/STM32F7xx_HAL_Driver/Src/stm32f7xx_hal_tim.c ****   assert_param(IS_TIM_AUTORELOAD_PRELOAD(htim->Init.AutoReloadPreload));
 283:Drivers/STM32F7xx_HAL_Driver/Src/stm32f7xx_hal_tim.c **** 
 284:Drivers/STM32F7xx_HAL_Driver/Src/stm32f7xx_hal_tim.c ****   if (htim->State == HAL_TIM_STATE_RESET)
 285:Drivers/STM32F7xx_HAL_Driver/Src/stm32f7xx_hal_tim.c ****   {
 286:Drivers/STM32F7xx_HAL_Driver/Src/stm32f7xx_hal_tim.c ****     /* Allocate lock resource and initialize it */
 287:Drivers/STM32F7xx_HAL_Driver/Src/stm32f7xx_hal_tim.c ****     htim->Lock = HAL_UNLOCKED;
 288:Drivers/STM32F7xx_HAL_Driver/Src/stm32f7xx_hal_tim.c **** 
 289:Drivers/STM32F7xx_HAL_Driver/Src/stm32f7xx_hal_tim.c **** #if (USE_HAL_TIM_REGISTER_CALLBACKS == 1)
 290:Drivers/STM32F7xx_HAL_Driver/Src/stm32f7xx_hal_tim.c ****     /* Reset interrupt callbacks to legacy weak callbacks */
 291:Drivers/STM32F7xx_HAL_Driver/Src/stm32f7xx_hal_tim.c ****     TIM_ResetCallback(htim);
 292:Drivers/STM32F7xx_HAL_Driver/Src/stm32f7xx_hal_tim.c **** 
 293:Drivers/STM32F7xx_HAL_Driver/Src/stm32f7xx_hal_tim.c ****     if (htim->Base_MspInitCallback == NULL)
 294:Drivers/STM32F7xx_HAL_Driver/Src/stm32f7xx_hal_tim.c ****     {
 295:Drivers/STM32F7xx_HAL_Driver/Src/stm32f7xx_hal_tim.c ****       htim->Base_MspInitCallback = HAL_TIM_Base_MspInit;
 296:Drivers/STM32F7xx_HAL_Driver/Src/stm32f7xx_hal_tim.c ****     }
 297:Drivers/STM32F7xx_HAL_Driver/Src/stm32f7xx_hal_tim.c ****     /* Init the low level hardware : GPIO, CLOCK, NVIC */
 298:Drivers/STM32F7xx_HAL_Driver/Src/stm32f7xx_hal_tim.c ****     htim->Base_MspInitCallback(htim);
 299:Drivers/STM32F7xx_HAL_Driver/Src/stm32f7xx_hal_tim.c **** #else
 300:Drivers/STM32F7xx_HAL_Driver/Src/stm32f7xx_hal_tim.c ****     /* Init the low level hardware : GPIO, CLOCK, NVIC */
 301:Drivers/STM32F7xx_HAL_Driver/Src/stm32f7xx_hal_tim.c ****     HAL_TIM_Base_MspInit(htim);
 302:Drivers/STM32F7xx_HAL_Driver/Src/stm32f7xx_hal_tim.c **** #endif /* USE_HAL_TIM_REGISTER_CALLBACKS */
 303:Drivers/STM32F7xx_HAL_Driver/Src/stm32f7xx_hal_tim.c ****   }
 304:Drivers/STM32F7xx_HAL_Driver/Src/stm32f7xx_hal_tim.c **** 
 305:Drivers/STM32F7xx_HAL_Driver/Src/stm32f7xx_hal_tim.c ****   /* Set the TIM state */
 306:Drivers/STM32F7xx_HAL_Driver/Src/stm32f7xx_hal_tim.c ****   htim->State = HAL_TIM_STATE_BUSY;
 307:Drivers/STM32F7xx_HAL_Driver/Src/stm32f7xx_hal_tim.c **** 
 308:Drivers/STM32F7xx_HAL_Driver/Src/stm32f7xx_hal_tim.c ****   /* Set the Time Base configuration */
 309:Drivers/STM32F7xx_HAL_Driver/Src/stm32f7xx_hal_tim.c ****   TIM_Base_SetConfig(htim->Instance, &htim->Init);
 310:Drivers/STM32F7xx_HAL_Driver/Src/stm32f7xx_hal_tim.c **** 
 311:Drivers/STM32F7xx_HAL_Driver/Src/stm32f7xx_hal_tim.c ****   /* Initialize the DMA burst operation state */
 312:Drivers/STM32F7xx_HAL_Driver/Src/stm32f7xx_hal_tim.c ****   htim->DMABurstState = HAL_DMA_BURST_STATE_READY;
 313:Drivers/STM32F7xx_HAL_Driver/Src/stm32f7xx_hal_tim.c **** 
 314:Drivers/STM32F7xx_HAL_Driver/Src/stm32f7xx_hal_tim.c ****   /* Initialize the TIM channels state */
ARM GAS  /tmp/ccxnnoCQ.s 			page 7


 315:Drivers/STM32F7xx_HAL_Driver/Src/stm32f7xx_hal_tim.c ****   TIM_CHANNEL_STATE_SET_ALL(htim, HAL_TIM_CHANNEL_STATE_READY);
 316:Drivers/STM32F7xx_HAL_Driver/Src/stm32f7xx_hal_tim.c ****   TIM_CHANNEL_N_STATE_SET_ALL(htim, HAL_TIM_CHANNEL_STATE_READY);
 317:Drivers/STM32F7xx_HAL_Driver/Src/stm32f7xx_hal_tim.c **** 
 318:Drivers/STM32F7xx_HAL_Driver/Src/stm32f7xx_hal_tim.c ****   /* Initialize the TIM state*/
 319:Drivers/STM32F7xx_HAL_Driver/Src/stm32f7xx_hal_tim.c ****   htim->State = HAL_TIM_STATE_READY;
 320:Drivers/STM32F7xx_HAL_Driver/Src/stm32f7xx_hal_tim.c **** 
 321:Drivers/STM32F7xx_HAL_Driver/Src/stm32f7xx_hal_tim.c ****   return HAL_OK;
 322:Drivers/STM32F7xx_HAL_Driver/Src/stm32f7xx_hal_tim.c **** }
 323:Drivers/STM32F7xx_HAL_Driver/Src/stm32f7xx_hal_tim.c **** 
 324:Drivers/STM32F7xx_HAL_Driver/Src/stm32f7xx_hal_tim.c **** /**
 325:Drivers/STM32F7xx_HAL_Driver/Src/stm32f7xx_hal_tim.c ****   * @brief  DeInitializes the TIM Base peripheral
 326:Drivers/STM32F7xx_HAL_Driver/Src/stm32f7xx_hal_tim.c ****   * @param  htim TIM Base handle
 327:Drivers/STM32F7xx_HAL_Driver/Src/stm32f7xx_hal_tim.c ****   * @retval HAL status
 328:Drivers/STM32F7xx_HAL_Driver/Src/stm32f7xx_hal_tim.c ****   */
 329:Drivers/STM32F7xx_HAL_Driver/Src/stm32f7xx_hal_tim.c **** HAL_StatusTypeDef HAL_TIM_Base_DeInit(TIM_HandleTypeDef *htim)
 330:Drivers/STM32F7xx_HAL_Driver/Src/stm32f7xx_hal_tim.c **** {
 331:Drivers/STM32F7xx_HAL_Driver/Src/stm32f7xx_hal_tim.c ****   /* Check the parameters */
 332:Drivers/STM32F7xx_HAL_Driver/Src/stm32f7xx_hal_tim.c ****   assert_param(IS_TIM_INSTANCE(htim->Instance));
 333:Drivers/STM32F7xx_HAL_Driver/Src/stm32f7xx_hal_tim.c **** 
 334:Drivers/STM32F7xx_HAL_Driver/Src/stm32f7xx_hal_tim.c ****   htim->State = HAL_TIM_STATE_BUSY;
 335:Drivers/STM32F7xx_HAL_Driver/Src/stm32f7xx_hal_tim.c **** 
 336:Drivers/STM32F7xx_HAL_Driver/Src/stm32f7xx_hal_tim.c ****   /* Disable the TIM Peripheral Clock */
 337:Drivers/STM32F7xx_HAL_Driver/Src/stm32f7xx_hal_tim.c ****   __HAL_TIM_DISABLE(htim);
 338:Drivers/STM32F7xx_HAL_Driver/Src/stm32f7xx_hal_tim.c **** 
 339:Drivers/STM32F7xx_HAL_Driver/Src/stm32f7xx_hal_tim.c **** #if (USE_HAL_TIM_REGISTER_CALLBACKS == 1)
 340:Drivers/STM32F7xx_HAL_Driver/Src/stm32f7xx_hal_tim.c ****   if (htim->Base_MspDeInitCallback == NULL)
 341:Drivers/STM32F7xx_HAL_Driver/Src/stm32f7xx_hal_tim.c ****   {
 342:Drivers/STM32F7xx_HAL_Driver/Src/stm32f7xx_hal_tim.c ****     htim->Base_MspDeInitCallback = HAL_TIM_Base_MspDeInit;
 343:Drivers/STM32F7xx_HAL_Driver/Src/stm32f7xx_hal_tim.c ****   }
 344:Drivers/STM32F7xx_HAL_Driver/Src/stm32f7xx_hal_tim.c ****   /* DeInit the low level hardware */
 345:Drivers/STM32F7xx_HAL_Driver/Src/stm32f7xx_hal_tim.c ****   htim->Base_MspDeInitCallback(htim);
 346:Drivers/STM32F7xx_HAL_Driver/Src/stm32f7xx_hal_tim.c **** #else
 347:Drivers/STM32F7xx_HAL_Driver/Src/stm32f7xx_hal_tim.c ****   /* DeInit the low level hardware: GPIO, CLOCK, NVIC */
 348:Drivers/STM32F7xx_HAL_Driver/Src/stm32f7xx_hal_tim.c ****   HAL_TIM_Base_MspDeInit(htim);
 349:Drivers/STM32F7xx_HAL_Driver/Src/stm32f7xx_hal_tim.c **** #endif /* USE_HAL_TIM_REGISTER_CALLBACKS */
 350:Drivers/STM32F7xx_HAL_Driver/Src/stm32f7xx_hal_tim.c **** 
 351:Drivers/STM32F7xx_HAL_Driver/Src/stm32f7xx_hal_tim.c ****   /* Change the DMA burst operation state */
 352:Drivers/STM32F7xx_HAL_Driver/Src/stm32f7xx_hal_tim.c ****   htim->DMABurstState = HAL_DMA_BURST_STATE_RESET;
 353:Drivers/STM32F7xx_HAL_Driver/Src/stm32f7xx_hal_tim.c **** 
 354:Drivers/STM32F7xx_HAL_Driver/Src/stm32f7xx_hal_tim.c ****   /* Change the TIM channels state */
 355:Drivers/STM32F7xx_HAL_Driver/Src/stm32f7xx_hal_tim.c ****   TIM_CHANNEL_STATE_SET_ALL(htim, HAL_TIM_CHANNEL_STATE_RESET);
 356:Drivers/STM32F7xx_HAL_Driver/Src/stm32f7xx_hal_tim.c ****   TIM_CHANNEL_N_STATE_SET_ALL(htim, HAL_TIM_CHANNEL_STATE_RESET);
 357:Drivers/STM32F7xx_HAL_Driver/Src/stm32f7xx_hal_tim.c **** 
 358:Drivers/STM32F7xx_HAL_Driver/Src/stm32f7xx_hal_tim.c ****   /* Change TIM state */
 359:Drivers/STM32F7xx_HAL_Driver/Src/stm32f7xx_hal_tim.c ****   htim->State = HAL_TIM_STATE_RESET;
 360:Drivers/STM32F7xx_HAL_Driver/Src/stm32f7xx_hal_tim.c **** 
 361:Drivers/STM32F7xx_HAL_Driver/Src/stm32f7xx_hal_tim.c ****   /* Release Lock */
 362:Drivers/STM32F7xx_HAL_Driver/Src/stm32f7xx_hal_tim.c ****   __HAL_UNLOCK(htim);
 363:Drivers/STM32F7xx_HAL_Driver/Src/stm32f7xx_hal_tim.c **** 
 364:Drivers/STM32F7xx_HAL_Driver/Src/stm32f7xx_hal_tim.c ****   return HAL_OK;
 365:Drivers/STM32F7xx_HAL_Driver/Src/stm32f7xx_hal_tim.c **** }
 366:Drivers/STM32F7xx_HAL_Driver/Src/stm32f7xx_hal_tim.c **** 
 367:Drivers/STM32F7xx_HAL_Driver/Src/stm32f7xx_hal_tim.c **** /**
 368:Drivers/STM32F7xx_HAL_Driver/Src/stm32f7xx_hal_tim.c ****   * @brief  Initializes the TIM Base MSP.
 369:Drivers/STM32F7xx_HAL_Driver/Src/stm32f7xx_hal_tim.c ****   * @param  htim TIM Base handle
 370:Drivers/STM32F7xx_HAL_Driver/Src/stm32f7xx_hal_tim.c ****   * @retval None
 371:Drivers/STM32F7xx_HAL_Driver/Src/stm32f7xx_hal_tim.c ****   */
ARM GAS  /tmp/ccxnnoCQ.s 			page 8


 372:Drivers/STM32F7xx_HAL_Driver/Src/stm32f7xx_hal_tim.c **** __weak void HAL_TIM_Base_MspInit(TIM_HandleTypeDef *htim)
 373:Drivers/STM32F7xx_HAL_Driver/Src/stm32f7xx_hal_tim.c **** {
  30              		.loc 1 373 1 view -0
  31              		.cfi_startproc
  32              		@ args = 0, pretend = 0, frame = 0
  33              		@ frame_needed = 0, uses_anonymous_args = 0
  34              		@ link register save eliminated.
 374:Drivers/STM32F7xx_HAL_Driver/Src/stm32f7xx_hal_tim.c ****   /* Prevent unused argument(s) compilation warning */
 375:Drivers/STM32F7xx_HAL_Driver/Src/stm32f7xx_hal_tim.c ****   UNUSED(htim);
  35              		.loc 1 375 3 view .LVU1
 376:Drivers/STM32F7xx_HAL_Driver/Src/stm32f7xx_hal_tim.c **** 
 377:Drivers/STM32F7xx_HAL_Driver/Src/stm32f7xx_hal_tim.c ****   /* NOTE : This function should not be modified, when the callback is needed,
 378:Drivers/STM32F7xx_HAL_Driver/Src/stm32f7xx_hal_tim.c ****             the HAL_TIM_Base_MspInit could be implemented in the user file
 379:Drivers/STM32F7xx_HAL_Driver/Src/stm32f7xx_hal_tim.c ****    */
 380:Drivers/STM32F7xx_HAL_Driver/Src/stm32f7xx_hal_tim.c **** }
  36              		.loc 1 380 1 is_stmt 0 view .LVU2
  37 0000 7047     		bx	lr
  38              		.cfi_endproc
  39              	.LFE143:
  41              		.section	.text.HAL_TIM_Base_MspDeInit,"ax",%progbits
  42              		.align	1
  43              		.weak	HAL_TIM_Base_MspDeInit
  44              		.syntax unified
  45              		.thumb
  46              		.thumb_func
  48              	HAL_TIM_Base_MspDeInit:
  49              	.LVL1:
  50              	.LFB144:
 381:Drivers/STM32F7xx_HAL_Driver/Src/stm32f7xx_hal_tim.c **** 
 382:Drivers/STM32F7xx_HAL_Driver/Src/stm32f7xx_hal_tim.c **** /**
 383:Drivers/STM32F7xx_HAL_Driver/Src/stm32f7xx_hal_tim.c ****   * @brief  DeInitializes TIM Base MSP.
 384:Drivers/STM32F7xx_HAL_Driver/Src/stm32f7xx_hal_tim.c ****   * @param  htim TIM Base handle
 385:Drivers/STM32F7xx_HAL_Driver/Src/stm32f7xx_hal_tim.c ****   * @retval None
 386:Drivers/STM32F7xx_HAL_Driver/Src/stm32f7xx_hal_tim.c ****   */
 387:Drivers/STM32F7xx_HAL_Driver/Src/stm32f7xx_hal_tim.c **** __weak void HAL_TIM_Base_MspDeInit(TIM_HandleTypeDef *htim)
 388:Drivers/STM32F7xx_HAL_Driver/Src/stm32f7xx_hal_tim.c **** {
  51              		.loc 1 388 1 is_stmt 1 view -0
  52              		.cfi_startproc
  53              		@ args = 0, pretend = 0, frame = 0
  54              		@ frame_needed = 0, uses_anonymous_args = 0
  55              		@ link register save eliminated.
 389:Drivers/STM32F7xx_HAL_Driver/Src/stm32f7xx_hal_tim.c ****   /* Prevent unused argument(s) compilation warning */
 390:Drivers/STM32F7xx_HAL_Driver/Src/stm32f7xx_hal_tim.c ****   UNUSED(htim);
  56              		.loc 1 390 3 view .LVU4
 391:Drivers/STM32F7xx_HAL_Driver/Src/stm32f7xx_hal_tim.c **** 
 392:Drivers/STM32F7xx_HAL_Driver/Src/stm32f7xx_hal_tim.c ****   /* NOTE : This function should not be modified, when the callback is needed,
 393:Drivers/STM32F7xx_HAL_Driver/Src/stm32f7xx_hal_tim.c ****             the HAL_TIM_Base_MspDeInit could be implemented in the user file
 394:Drivers/STM32F7xx_HAL_Driver/Src/stm32f7xx_hal_tim.c ****    */
 395:Drivers/STM32F7xx_HAL_Driver/Src/stm32f7xx_hal_tim.c **** }
  57              		.loc 1 395 1 is_stmt 0 view .LVU5
  58 0000 7047     		bx	lr
  59              		.cfi_endproc
  60              	.LFE144:
  62              		.section	.text.HAL_TIM_OC_MspInit,"ax",%progbits
  63              		.align	1
  64              		.weak	HAL_TIM_OC_MspInit
  65              		.syntax unified
ARM GAS  /tmp/ccxnnoCQ.s 			page 9


  66              		.thumb
  67              		.thumb_func
  69              	HAL_TIM_OC_MspInit:
  70              	.LVL2:
  71              	.LFB153:
 396:Drivers/STM32F7xx_HAL_Driver/Src/stm32f7xx_hal_tim.c **** 
 397:Drivers/STM32F7xx_HAL_Driver/Src/stm32f7xx_hal_tim.c **** 
 398:Drivers/STM32F7xx_HAL_Driver/Src/stm32f7xx_hal_tim.c **** /**
 399:Drivers/STM32F7xx_HAL_Driver/Src/stm32f7xx_hal_tim.c ****   * @brief  Starts the TIM Base generation.
 400:Drivers/STM32F7xx_HAL_Driver/Src/stm32f7xx_hal_tim.c ****   * @param  htim TIM Base handle
 401:Drivers/STM32F7xx_HAL_Driver/Src/stm32f7xx_hal_tim.c ****   * @retval HAL status
 402:Drivers/STM32F7xx_HAL_Driver/Src/stm32f7xx_hal_tim.c ****   */
 403:Drivers/STM32F7xx_HAL_Driver/Src/stm32f7xx_hal_tim.c **** HAL_StatusTypeDef HAL_TIM_Base_Start(TIM_HandleTypeDef *htim)
 404:Drivers/STM32F7xx_HAL_Driver/Src/stm32f7xx_hal_tim.c **** {
 405:Drivers/STM32F7xx_HAL_Driver/Src/stm32f7xx_hal_tim.c ****   uint32_t tmpsmcr;
 406:Drivers/STM32F7xx_HAL_Driver/Src/stm32f7xx_hal_tim.c **** 
 407:Drivers/STM32F7xx_HAL_Driver/Src/stm32f7xx_hal_tim.c ****   /* Check the parameters */
 408:Drivers/STM32F7xx_HAL_Driver/Src/stm32f7xx_hal_tim.c ****   assert_param(IS_TIM_INSTANCE(htim->Instance));
 409:Drivers/STM32F7xx_HAL_Driver/Src/stm32f7xx_hal_tim.c **** 
 410:Drivers/STM32F7xx_HAL_Driver/Src/stm32f7xx_hal_tim.c ****   /* Check the TIM state */
 411:Drivers/STM32F7xx_HAL_Driver/Src/stm32f7xx_hal_tim.c ****   if (htim->State != HAL_TIM_STATE_READY)
 412:Drivers/STM32F7xx_HAL_Driver/Src/stm32f7xx_hal_tim.c ****   {
 413:Drivers/STM32F7xx_HAL_Driver/Src/stm32f7xx_hal_tim.c ****     return HAL_ERROR;
 414:Drivers/STM32F7xx_HAL_Driver/Src/stm32f7xx_hal_tim.c ****   }
 415:Drivers/STM32F7xx_HAL_Driver/Src/stm32f7xx_hal_tim.c **** 
 416:Drivers/STM32F7xx_HAL_Driver/Src/stm32f7xx_hal_tim.c ****   /* Set the TIM state */
 417:Drivers/STM32F7xx_HAL_Driver/Src/stm32f7xx_hal_tim.c ****   htim->State = HAL_TIM_STATE_BUSY;
 418:Drivers/STM32F7xx_HAL_Driver/Src/stm32f7xx_hal_tim.c **** 
 419:Drivers/STM32F7xx_HAL_Driver/Src/stm32f7xx_hal_tim.c ****   /* Enable the Peripheral, except in trigger mode where enable is automatically done with trigger 
 420:Drivers/STM32F7xx_HAL_Driver/Src/stm32f7xx_hal_tim.c ****   if (IS_TIM_SLAVE_INSTANCE(htim->Instance))
 421:Drivers/STM32F7xx_HAL_Driver/Src/stm32f7xx_hal_tim.c ****   {
 422:Drivers/STM32F7xx_HAL_Driver/Src/stm32f7xx_hal_tim.c ****     tmpsmcr = htim->Instance->SMCR & TIM_SMCR_SMS;
 423:Drivers/STM32F7xx_HAL_Driver/Src/stm32f7xx_hal_tim.c ****     if (!IS_TIM_SLAVEMODE_TRIGGER_ENABLED(tmpsmcr))
 424:Drivers/STM32F7xx_HAL_Driver/Src/stm32f7xx_hal_tim.c ****     {
 425:Drivers/STM32F7xx_HAL_Driver/Src/stm32f7xx_hal_tim.c ****       __HAL_TIM_ENABLE(htim);
 426:Drivers/STM32F7xx_HAL_Driver/Src/stm32f7xx_hal_tim.c ****     }
 427:Drivers/STM32F7xx_HAL_Driver/Src/stm32f7xx_hal_tim.c ****   }
 428:Drivers/STM32F7xx_HAL_Driver/Src/stm32f7xx_hal_tim.c ****   else
 429:Drivers/STM32F7xx_HAL_Driver/Src/stm32f7xx_hal_tim.c ****   {
 430:Drivers/STM32F7xx_HAL_Driver/Src/stm32f7xx_hal_tim.c ****     __HAL_TIM_ENABLE(htim);
 431:Drivers/STM32F7xx_HAL_Driver/Src/stm32f7xx_hal_tim.c ****   }
 432:Drivers/STM32F7xx_HAL_Driver/Src/stm32f7xx_hal_tim.c **** 
 433:Drivers/STM32F7xx_HAL_Driver/Src/stm32f7xx_hal_tim.c ****   /* Return function status */
 434:Drivers/STM32F7xx_HAL_Driver/Src/stm32f7xx_hal_tim.c ****   return HAL_OK;
 435:Drivers/STM32F7xx_HAL_Driver/Src/stm32f7xx_hal_tim.c **** }
 436:Drivers/STM32F7xx_HAL_Driver/Src/stm32f7xx_hal_tim.c **** 
 437:Drivers/STM32F7xx_HAL_Driver/Src/stm32f7xx_hal_tim.c **** /**
 438:Drivers/STM32F7xx_HAL_Driver/Src/stm32f7xx_hal_tim.c ****   * @brief  Stops the TIM Base generation.
 439:Drivers/STM32F7xx_HAL_Driver/Src/stm32f7xx_hal_tim.c ****   * @param  htim TIM Base handle
 440:Drivers/STM32F7xx_HAL_Driver/Src/stm32f7xx_hal_tim.c ****   * @retval HAL status
 441:Drivers/STM32F7xx_HAL_Driver/Src/stm32f7xx_hal_tim.c ****   */
 442:Drivers/STM32F7xx_HAL_Driver/Src/stm32f7xx_hal_tim.c **** HAL_StatusTypeDef HAL_TIM_Base_Stop(TIM_HandleTypeDef *htim)
 443:Drivers/STM32F7xx_HAL_Driver/Src/stm32f7xx_hal_tim.c **** {
 444:Drivers/STM32F7xx_HAL_Driver/Src/stm32f7xx_hal_tim.c ****   /* Check the parameters */
 445:Drivers/STM32F7xx_HAL_Driver/Src/stm32f7xx_hal_tim.c ****   assert_param(IS_TIM_INSTANCE(htim->Instance));
 446:Drivers/STM32F7xx_HAL_Driver/Src/stm32f7xx_hal_tim.c **** 
 447:Drivers/STM32F7xx_HAL_Driver/Src/stm32f7xx_hal_tim.c ****   /* Disable the Peripheral */
ARM GAS  /tmp/ccxnnoCQ.s 			page 10


 448:Drivers/STM32F7xx_HAL_Driver/Src/stm32f7xx_hal_tim.c ****   __HAL_TIM_DISABLE(htim);
 449:Drivers/STM32F7xx_HAL_Driver/Src/stm32f7xx_hal_tim.c **** 
 450:Drivers/STM32F7xx_HAL_Driver/Src/stm32f7xx_hal_tim.c ****   /* Set the TIM state */
 451:Drivers/STM32F7xx_HAL_Driver/Src/stm32f7xx_hal_tim.c ****   htim->State = HAL_TIM_STATE_READY;
 452:Drivers/STM32F7xx_HAL_Driver/Src/stm32f7xx_hal_tim.c **** 
 453:Drivers/STM32F7xx_HAL_Driver/Src/stm32f7xx_hal_tim.c ****   /* Return function status */
 454:Drivers/STM32F7xx_HAL_Driver/Src/stm32f7xx_hal_tim.c ****   return HAL_OK;
 455:Drivers/STM32F7xx_HAL_Driver/Src/stm32f7xx_hal_tim.c **** }
 456:Drivers/STM32F7xx_HAL_Driver/Src/stm32f7xx_hal_tim.c **** 
 457:Drivers/STM32F7xx_HAL_Driver/Src/stm32f7xx_hal_tim.c **** /**
 458:Drivers/STM32F7xx_HAL_Driver/Src/stm32f7xx_hal_tim.c ****   * @brief  Starts the TIM Base generation in interrupt mode.
 459:Drivers/STM32F7xx_HAL_Driver/Src/stm32f7xx_hal_tim.c ****   * @param  htim TIM Base handle
 460:Drivers/STM32F7xx_HAL_Driver/Src/stm32f7xx_hal_tim.c ****   * @retval HAL status
 461:Drivers/STM32F7xx_HAL_Driver/Src/stm32f7xx_hal_tim.c ****   */
 462:Drivers/STM32F7xx_HAL_Driver/Src/stm32f7xx_hal_tim.c **** HAL_StatusTypeDef HAL_TIM_Base_Start_IT(TIM_HandleTypeDef *htim)
 463:Drivers/STM32F7xx_HAL_Driver/Src/stm32f7xx_hal_tim.c **** {
 464:Drivers/STM32F7xx_HAL_Driver/Src/stm32f7xx_hal_tim.c ****   uint32_t tmpsmcr;
 465:Drivers/STM32F7xx_HAL_Driver/Src/stm32f7xx_hal_tim.c **** 
 466:Drivers/STM32F7xx_HAL_Driver/Src/stm32f7xx_hal_tim.c ****   /* Check the parameters */
 467:Drivers/STM32F7xx_HAL_Driver/Src/stm32f7xx_hal_tim.c ****   assert_param(IS_TIM_INSTANCE(htim->Instance));
 468:Drivers/STM32F7xx_HAL_Driver/Src/stm32f7xx_hal_tim.c **** 
 469:Drivers/STM32F7xx_HAL_Driver/Src/stm32f7xx_hal_tim.c ****   /* Check the TIM state */
 470:Drivers/STM32F7xx_HAL_Driver/Src/stm32f7xx_hal_tim.c ****   if (htim->State != HAL_TIM_STATE_READY)
 471:Drivers/STM32F7xx_HAL_Driver/Src/stm32f7xx_hal_tim.c ****   {
 472:Drivers/STM32F7xx_HAL_Driver/Src/stm32f7xx_hal_tim.c ****     return HAL_ERROR;
 473:Drivers/STM32F7xx_HAL_Driver/Src/stm32f7xx_hal_tim.c ****   }
 474:Drivers/STM32F7xx_HAL_Driver/Src/stm32f7xx_hal_tim.c **** 
 475:Drivers/STM32F7xx_HAL_Driver/Src/stm32f7xx_hal_tim.c ****   /* Set the TIM state */
 476:Drivers/STM32F7xx_HAL_Driver/Src/stm32f7xx_hal_tim.c ****   htim->State = HAL_TIM_STATE_BUSY;
 477:Drivers/STM32F7xx_HAL_Driver/Src/stm32f7xx_hal_tim.c **** 
 478:Drivers/STM32F7xx_HAL_Driver/Src/stm32f7xx_hal_tim.c ****   /* Enable the TIM Update interrupt */
 479:Drivers/STM32F7xx_HAL_Driver/Src/stm32f7xx_hal_tim.c ****   __HAL_TIM_ENABLE_IT(htim, TIM_IT_UPDATE);
 480:Drivers/STM32F7xx_HAL_Driver/Src/stm32f7xx_hal_tim.c **** 
 481:Drivers/STM32F7xx_HAL_Driver/Src/stm32f7xx_hal_tim.c ****   /* Enable the Peripheral, except in trigger mode where enable is automatically done with trigger 
 482:Drivers/STM32F7xx_HAL_Driver/Src/stm32f7xx_hal_tim.c ****   if (IS_TIM_SLAVE_INSTANCE(htim->Instance))
 483:Drivers/STM32F7xx_HAL_Driver/Src/stm32f7xx_hal_tim.c ****   {
 484:Drivers/STM32F7xx_HAL_Driver/Src/stm32f7xx_hal_tim.c ****     tmpsmcr = htim->Instance->SMCR & TIM_SMCR_SMS;
 485:Drivers/STM32F7xx_HAL_Driver/Src/stm32f7xx_hal_tim.c ****     if (!IS_TIM_SLAVEMODE_TRIGGER_ENABLED(tmpsmcr))
 486:Drivers/STM32F7xx_HAL_Driver/Src/stm32f7xx_hal_tim.c ****     {
 487:Drivers/STM32F7xx_HAL_Driver/Src/stm32f7xx_hal_tim.c ****       __HAL_TIM_ENABLE(htim);
 488:Drivers/STM32F7xx_HAL_Driver/Src/stm32f7xx_hal_tim.c ****     }
 489:Drivers/STM32F7xx_HAL_Driver/Src/stm32f7xx_hal_tim.c ****   }
 490:Drivers/STM32F7xx_HAL_Driver/Src/stm32f7xx_hal_tim.c ****   else
 491:Drivers/STM32F7xx_HAL_Driver/Src/stm32f7xx_hal_tim.c ****   {
 492:Drivers/STM32F7xx_HAL_Driver/Src/stm32f7xx_hal_tim.c ****     __HAL_TIM_ENABLE(htim);
 493:Drivers/STM32F7xx_HAL_Driver/Src/stm32f7xx_hal_tim.c ****   }
 494:Drivers/STM32F7xx_HAL_Driver/Src/stm32f7xx_hal_tim.c **** 
 495:Drivers/STM32F7xx_HAL_Driver/Src/stm32f7xx_hal_tim.c ****   /* Return function status */
 496:Drivers/STM32F7xx_HAL_Driver/Src/stm32f7xx_hal_tim.c ****   return HAL_OK;
 497:Drivers/STM32F7xx_HAL_Driver/Src/stm32f7xx_hal_tim.c **** }
 498:Drivers/STM32F7xx_HAL_Driver/Src/stm32f7xx_hal_tim.c **** 
 499:Drivers/STM32F7xx_HAL_Driver/Src/stm32f7xx_hal_tim.c **** /**
 500:Drivers/STM32F7xx_HAL_Driver/Src/stm32f7xx_hal_tim.c ****   * @brief  Stops the TIM Base generation in interrupt mode.
 501:Drivers/STM32F7xx_HAL_Driver/Src/stm32f7xx_hal_tim.c ****   * @param  htim TIM Base handle
 502:Drivers/STM32F7xx_HAL_Driver/Src/stm32f7xx_hal_tim.c ****   * @retval HAL status
 503:Drivers/STM32F7xx_HAL_Driver/Src/stm32f7xx_hal_tim.c ****   */
 504:Drivers/STM32F7xx_HAL_Driver/Src/stm32f7xx_hal_tim.c **** HAL_StatusTypeDef HAL_TIM_Base_Stop_IT(TIM_HandleTypeDef *htim)
ARM GAS  /tmp/ccxnnoCQ.s 			page 11


 505:Drivers/STM32F7xx_HAL_Driver/Src/stm32f7xx_hal_tim.c **** {
 506:Drivers/STM32F7xx_HAL_Driver/Src/stm32f7xx_hal_tim.c ****   /* Check the parameters */
 507:Drivers/STM32F7xx_HAL_Driver/Src/stm32f7xx_hal_tim.c ****   assert_param(IS_TIM_INSTANCE(htim->Instance));
 508:Drivers/STM32F7xx_HAL_Driver/Src/stm32f7xx_hal_tim.c **** 
 509:Drivers/STM32F7xx_HAL_Driver/Src/stm32f7xx_hal_tim.c ****   /* Disable the TIM Update interrupt */
 510:Drivers/STM32F7xx_HAL_Driver/Src/stm32f7xx_hal_tim.c ****   __HAL_TIM_DISABLE_IT(htim, TIM_IT_UPDATE);
 511:Drivers/STM32F7xx_HAL_Driver/Src/stm32f7xx_hal_tim.c **** 
 512:Drivers/STM32F7xx_HAL_Driver/Src/stm32f7xx_hal_tim.c ****   /* Disable the Peripheral */
 513:Drivers/STM32F7xx_HAL_Driver/Src/stm32f7xx_hal_tim.c ****   __HAL_TIM_DISABLE(htim);
 514:Drivers/STM32F7xx_HAL_Driver/Src/stm32f7xx_hal_tim.c **** 
 515:Drivers/STM32F7xx_HAL_Driver/Src/stm32f7xx_hal_tim.c ****   /* Set the TIM state */
 516:Drivers/STM32F7xx_HAL_Driver/Src/stm32f7xx_hal_tim.c ****   htim->State = HAL_TIM_STATE_READY;
 517:Drivers/STM32F7xx_HAL_Driver/Src/stm32f7xx_hal_tim.c **** 
 518:Drivers/STM32F7xx_HAL_Driver/Src/stm32f7xx_hal_tim.c ****   /* Return function status */
 519:Drivers/STM32F7xx_HAL_Driver/Src/stm32f7xx_hal_tim.c ****   return HAL_OK;
 520:Drivers/STM32F7xx_HAL_Driver/Src/stm32f7xx_hal_tim.c **** }
 521:Drivers/STM32F7xx_HAL_Driver/Src/stm32f7xx_hal_tim.c **** 
 522:Drivers/STM32F7xx_HAL_Driver/Src/stm32f7xx_hal_tim.c **** /**
 523:Drivers/STM32F7xx_HAL_Driver/Src/stm32f7xx_hal_tim.c ****   * @brief  Starts the TIM Base generation in DMA mode.
 524:Drivers/STM32F7xx_HAL_Driver/Src/stm32f7xx_hal_tim.c ****   * @param  htim TIM Base handle
 525:Drivers/STM32F7xx_HAL_Driver/Src/stm32f7xx_hal_tim.c ****   * @param  pData The source Buffer address.
 526:Drivers/STM32F7xx_HAL_Driver/Src/stm32f7xx_hal_tim.c ****   * @param  Length The length of data to be transferred from memory to peripheral.
 527:Drivers/STM32F7xx_HAL_Driver/Src/stm32f7xx_hal_tim.c ****   * @retval HAL status
 528:Drivers/STM32F7xx_HAL_Driver/Src/stm32f7xx_hal_tim.c ****   */
 529:Drivers/STM32F7xx_HAL_Driver/Src/stm32f7xx_hal_tim.c **** HAL_StatusTypeDef HAL_TIM_Base_Start_DMA(TIM_HandleTypeDef *htim, const uint32_t *pData, uint16_t L
 530:Drivers/STM32F7xx_HAL_Driver/Src/stm32f7xx_hal_tim.c **** {
 531:Drivers/STM32F7xx_HAL_Driver/Src/stm32f7xx_hal_tim.c ****   uint32_t tmpsmcr;
 532:Drivers/STM32F7xx_HAL_Driver/Src/stm32f7xx_hal_tim.c **** 
 533:Drivers/STM32F7xx_HAL_Driver/Src/stm32f7xx_hal_tim.c ****   /* Check the parameters */
 534:Drivers/STM32F7xx_HAL_Driver/Src/stm32f7xx_hal_tim.c ****   assert_param(IS_TIM_DMA_INSTANCE(htim->Instance));
 535:Drivers/STM32F7xx_HAL_Driver/Src/stm32f7xx_hal_tim.c **** 
 536:Drivers/STM32F7xx_HAL_Driver/Src/stm32f7xx_hal_tim.c ****   /* Set the TIM state */
 537:Drivers/STM32F7xx_HAL_Driver/Src/stm32f7xx_hal_tim.c ****   if (htim->State == HAL_TIM_STATE_BUSY)
 538:Drivers/STM32F7xx_HAL_Driver/Src/stm32f7xx_hal_tim.c ****   {
 539:Drivers/STM32F7xx_HAL_Driver/Src/stm32f7xx_hal_tim.c ****     return HAL_BUSY;
 540:Drivers/STM32F7xx_HAL_Driver/Src/stm32f7xx_hal_tim.c ****   }
 541:Drivers/STM32F7xx_HAL_Driver/Src/stm32f7xx_hal_tim.c ****   else if (htim->State == HAL_TIM_STATE_READY)
 542:Drivers/STM32F7xx_HAL_Driver/Src/stm32f7xx_hal_tim.c ****   {
 543:Drivers/STM32F7xx_HAL_Driver/Src/stm32f7xx_hal_tim.c ****     if ((pData == NULL) || (Length == 0U))
 544:Drivers/STM32F7xx_HAL_Driver/Src/stm32f7xx_hal_tim.c ****     {
 545:Drivers/STM32F7xx_HAL_Driver/Src/stm32f7xx_hal_tim.c ****       return HAL_ERROR;
 546:Drivers/STM32F7xx_HAL_Driver/Src/stm32f7xx_hal_tim.c ****     }
 547:Drivers/STM32F7xx_HAL_Driver/Src/stm32f7xx_hal_tim.c ****     else
 548:Drivers/STM32F7xx_HAL_Driver/Src/stm32f7xx_hal_tim.c ****     {
 549:Drivers/STM32F7xx_HAL_Driver/Src/stm32f7xx_hal_tim.c ****       htim->State = HAL_TIM_STATE_BUSY;
 550:Drivers/STM32F7xx_HAL_Driver/Src/stm32f7xx_hal_tim.c ****     }
 551:Drivers/STM32F7xx_HAL_Driver/Src/stm32f7xx_hal_tim.c ****   }
 552:Drivers/STM32F7xx_HAL_Driver/Src/stm32f7xx_hal_tim.c ****   else
 553:Drivers/STM32F7xx_HAL_Driver/Src/stm32f7xx_hal_tim.c ****   {
 554:Drivers/STM32F7xx_HAL_Driver/Src/stm32f7xx_hal_tim.c ****     return HAL_ERROR;
 555:Drivers/STM32F7xx_HAL_Driver/Src/stm32f7xx_hal_tim.c ****   }
 556:Drivers/STM32F7xx_HAL_Driver/Src/stm32f7xx_hal_tim.c **** 
 557:Drivers/STM32F7xx_HAL_Driver/Src/stm32f7xx_hal_tim.c ****   /* Set the DMA Period elapsed callbacks */
 558:Drivers/STM32F7xx_HAL_Driver/Src/stm32f7xx_hal_tim.c ****   htim->hdma[TIM_DMA_ID_UPDATE]->XferCpltCallback = TIM_DMAPeriodElapsedCplt;
 559:Drivers/STM32F7xx_HAL_Driver/Src/stm32f7xx_hal_tim.c ****   htim->hdma[TIM_DMA_ID_UPDATE]->XferHalfCpltCallback = TIM_DMAPeriodElapsedHalfCplt;
 560:Drivers/STM32F7xx_HAL_Driver/Src/stm32f7xx_hal_tim.c **** 
 561:Drivers/STM32F7xx_HAL_Driver/Src/stm32f7xx_hal_tim.c ****   /* Set the DMA error callback */
ARM GAS  /tmp/ccxnnoCQ.s 			page 12


 562:Drivers/STM32F7xx_HAL_Driver/Src/stm32f7xx_hal_tim.c ****   htim->hdma[TIM_DMA_ID_UPDATE]->XferErrorCallback = TIM_DMAError ;
 563:Drivers/STM32F7xx_HAL_Driver/Src/stm32f7xx_hal_tim.c **** 
 564:Drivers/STM32F7xx_HAL_Driver/Src/stm32f7xx_hal_tim.c ****   /* Enable the DMA stream */
 565:Drivers/STM32F7xx_HAL_Driver/Src/stm32f7xx_hal_tim.c ****   if (HAL_DMA_Start_IT(htim->hdma[TIM_DMA_ID_UPDATE], (uint32_t)pData, (uint32_t)&htim->Instance->A
 566:Drivers/STM32F7xx_HAL_Driver/Src/stm32f7xx_hal_tim.c ****                        Length) != HAL_OK)
 567:Drivers/STM32F7xx_HAL_Driver/Src/stm32f7xx_hal_tim.c ****   {
 568:Drivers/STM32F7xx_HAL_Driver/Src/stm32f7xx_hal_tim.c ****     /* Return error status */
 569:Drivers/STM32F7xx_HAL_Driver/Src/stm32f7xx_hal_tim.c ****     return HAL_ERROR;
 570:Drivers/STM32F7xx_HAL_Driver/Src/stm32f7xx_hal_tim.c ****   }
 571:Drivers/STM32F7xx_HAL_Driver/Src/stm32f7xx_hal_tim.c **** 
 572:Drivers/STM32F7xx_HAL_Driver/Src/stm32f7xx_hal_tim.c ****   /* Enable the TIM Update DMA request */
 573:Drivers/STM32F7xx_HAL_Driver/Src/stm32f7xx_hal_tim.c ****   __HAL_TIM_ENABLE_DMA(htim, TIM_DMA_UPDATE);
 574:Drivers/STM32F7xx_HAL_Driver/Src/stm32f7xx_hal_tim.c **** 
 575:Drivers/STM32F7xx_HAL_Driver/Src/stm32f7xx_hal_tim.c ****   /* Enable the Peripheral, except in trigger mode where enable is automatically done with trigger 
 576:Drivers/STM32F7xx_HAL_Driver/Src/stm32f7xx_hal_tim.c ****   if (IS_TIM_SLAVE_INSTANCE(htim->Instance))
 577:Drivers/STM32F7xx_HAL_Driver/Src/stm32f7xx_hal_tim.c ****   {
 578:Drivers/STM32F7xx_HAL_Driver/Src/stm32f7xx_hal_tim.c ****     tmpsmcr = htim->Instance->SMCR & TIM_SMCR_SMS;
 579:Drivers/STM32F7xx_HAL_Driver/Src/stm32f7xx_hal_tim.c ****     if (!IS_TIM_SLAVEMODE_TRIGGER_ENABLED(tmpsmcr))
 580:Drivers/STM32F7xx_HAL_Driver/Src/stm32f7xx_hal_tim.c ****     {
 581:Drivers/STM32F7xx_HAL_Driver/Src/stm32f7xx_hal_tim.c ****       __HAL_TIM_ENABLE(htim);
 582:Drivers/STM32F7xx_HAL_Driver/Src/stm32f7xx_hal_tim.c ****     }
 583:Drivers/STM32F7xx_HAL_Driver/Src/stm32f7xx_hal_tim.c ****   }
 584:Drivers/STM32F7xx_HAL_Driver/Src/stm32f7xx_hal_tim.c ****   else
 585:Drivers/STM32F7xx_HAL_Driver/Src/stm32f7xx_hal_tim.c ****   {
 586:Drivers/STM32F7xx_HAL_Driver/Src/stm32f7xx_hal_tim.c ****     __HAL_TIM_ENABLE(htim);
 587:Drivers/STM32F7xx_HAL_Driver/Src/stm32f7xx_hal_tim.c ****   }
 588:Drivers/STM32F7xx_HAL_Driver/Src/stm32f7xx_hal_tim.c **** 
 589:Drivers/STM32F7xx_HAL_Driver/Src/stm32f7xx_hal_tim.c ****   /* Return function status */
 590:Drivers/STM32F7xx_HAL_Driver/Src/stm32f7xx_hal_tim.c ****   return HAL_OK;
 591:Drivers/STM32F7xx_HAL_Driver/Src/stm32f7xx_hal_tim.c **** }
 592:Drivers/STM32F7xx_HAL_Driver/Src/stm32f7xx_hal_tim.c **** 
 593:Drivers/STM32F7xx_HAL_Driver/Src/stm32f7xx_hal_tim.c **** /**
 594:Drivers/STM32F7xx_HAL_Driver/Src/stm32f7xx_hal_tim.c ****   * @brief  Stops the TIM Base generation in DMA mode.
 595:Drivers/STM32F7xx_HAL_Driver/Src/stm32f7xx_hal_tim.c ****   * @param  htim TIM Base handle
 596:Drivers/STM32F7xx_HAL_Driver/Src/stm32f7xx_hal_tim.c ****   * @retval HAL status
 597:Drivers/STM32F7xx_HAL_Driver/Src/stm32f7xx_hal_tim.c ****   */
 598:Drivers/STM32F7xx_HAL_Driver/Src/stm32f7xx_hal_tim.c **** HAL_StatusTypeDef HAL_TIM_Base_Stop_DMA(TIM_HandleTypeDef *htim)
 599:Drivers/STM32F7xx_HAL_Driver/Src/stm32f7xx_hal_tim.c **** {
 600:Drivers/STM32F7xx_HAL_Driver/Src/stm32f7xx_hal_tim.c ****   /* Check the parameters */
 601:Drivers/STM32F7xx_HAL_Driver/Src/stm32f7xx_hal_tim.c ****   assert_param(IS_TIM_DMA_INSTANCE(htim->Instance));
 602:Drivers/STM32F7xx_HAL_Driver/Src/stm32f7xx_hal_tim.c **** 
 603:Drivers/STM32F7xx_HAL_Driver/Src/stm32f7xx_hal_tim.c ****   /* Disable the TIM Update DMA request */
 604:Drivers/STM32F7xx_HAL_Driver/Src/stm32f7xx_hal_tim.c ****   __HAL_TIM_DISABLE_DMA(htim, TIM_DMA_UPDATE);
 605:Drivers/STM32F7xx_HAL_Driver/Src/stm32f7xx_hal_tim.c **** 
 606:Drivers/STM32F7xx_HAL_Driver/Src/stm32f7xx_hal_tim.c ****   (void)HAL_DMA_Abort_IT(htim->hdma[TIM_DMA_ID_UPDATE]);
 607:Drivers/STM32F7xx_HAL_Driver/Src/stm32f7xx_hal_tim.c **** 
 608:Drivers/STM32F7xx_HAL_Driver/Src/stm32f7xx_hal_tim.c ****   /* Disable the Peripheral */
 609:Drivers/STM32F7xx_HAL_Driver/Src/stm32f7xx_hal_tim.c ****   __HAL_TIM_DISABLE(htim);
 610:Drivers/STM32F7xx_HAL_Driver/Src/stm32f7xx_hal_tim.c **** 
 611:Drivers/STM32F7xx_HAL_Driver/Src/stm32f7xx_hal_tim.c ****   /* Set the TIM state */
 612:Drivers/STM32F7xx_HAL_Driver/Src/stm32f7xx_hal_tim.c ****   htim->State = HAL_TIM_STATE_READY;
 613:Drivers/STM32F7xx_HAL_Driver/Src/stm32f7xx_hal_tim.c **** 
 614:Drivers/STM32F7xx_HAL_Driver/Src/stm32f7xx_hal_tim.c ****   /* Return function status */
 615:Drivers/STM32F7xx_HAL_Driver/Src/stm32f7xx_hal_tim.c ****   return HAL_OK;
 616:Drivers/STM32F7xx_HAL_Driver/Src/stm32f7xx_hal_tim.c **** }
 617:Drivers/STM32F7xx_HAL_Driver/Src/stm32f7xx_hal_tim.c **** 
 618:Drivers/STM32F7xx_HAL_Driver/Src/stm32f7xx_hal_tim.c **** /**
ARM GAS  /tmp/ccxnnoCQ.s 			page 13


 619:Drivers/STM32F7xx_HAL_Driver/Src/stm32f7xx_hal_tim.c ****   * @}
 620:Drivers/STM32F7xx_HAL_Driver/Src/stm32f7xx_hal_tim.c ****   */
 621:Drivers/STM32F7xx_HAL_Driver/Src/stm32f7xx_hal_tim.c **** 
 622:Drivers/STM32F7xx_HAL_Driver/Src/stm32f7xx_hal_tim.c **** /** @defgroup TIM_Exported_Functions_Group2 TIM Output Compare functions
 623:Drivers/STM32F7xx_HAL_Driver/Src/stm32f7xx_hal_tim.c ****   *  @brief    TIM Output Compare functions
 624:Drivers/STM32F7xx_HAL_Driver/Src/stm32f7xx_hal_tim.c ****   *
 625:Drivers/STM32F7xx_HAL_Driver/Src/stm32f7xx_hal_tim.c **** @verbatim
 626:Drivers/STM32F7xx_HAL_Driver/Src/stm32f7xx_hal_tim.c ****   ==============================================================================
 627:Drivers/STM32F7xx_HAL_Driver/Src/stm32f7xx_hal_tim.c ****                   ##### TIM Output Compare functions #####
 628:Drivers/STM32F7xx_HAL_Driver/Src/stm32f7xx_hal_tim.c ****   ==============================================================================
 629:Drivers/STM32F7xx_HAL_Driver/Src/stm32f7xx_hal_tim.c ****   [..]
 630:Drivers/STM32F7xx_HAL_Driver/Src/stm32f7xx_hal_tim.c ****     This section provides functions allowing to:
 631:Drivers/STM32F7xx_HAL_Driver/Src/stm32f7xx_hal_tim.c ****     (+) Initialize and configure the TIM Output Compare.
 632:Drivers/STM32F7xx_HAL_Driver/Src/stm32f7xx_hal_tim.c ****     (+) De-initialize the TIM Output Compare.
 633:Drivers/STM32F7xx_HAL_Driver/Src/stm32f7xx_hal_tim.c ****     (+) Start the TIM Output Compare.
 634:Drivers/STM32F7xx_HAL_Driver/Src/stm32f7xx_hal_tim.c ****     (+) Stop the TIM Output Compare.
 635:Drivers/STM32F7xx_HAL_Driver/Src/stm32f7xx_hal_tim.c ****     (+) Start the TIM Output Compare and enable interrupt.
 636:Drivers/STM32F7xx_HAL_Driver/Src/stm32f7xx_hal_tim.c ****     (+) Stop the TIM Output Compare and disable interrupt.
 637:Drivers/STM32F7xx_HAL_Driver/Src/stm32f7xx_hal_tim.c ****     (+) Start the TIM Output Compare and enable DMA transfer.
 638:Drivers/STM32F7xx_HAL_Driver/Src/stm32f7xx_hal_tim.c ****     (+) Stop the TIM Output Compare and disable DMA transfer.
 639:Drivers/STM32F7xx_HAL_Driver/Src/stm32f7xx_hal_tim.c **** 
 640:Drivers/STM32F7xx_HAL_Driver/Src/stm32f7xx_hal_tim.c **** @endverbatim
 641:Drivers/STM32F7xx_HAL_Driver/Src/stm32f7xx_hal_tim.c ****   * @{
 642:Drivers/STM32F7xx_HAL_Driver/Src/stm32f7xx_hal_tim.c ****   */
 643:Drivers/STM32F7xx_HAL_Driver/Src/stm32f7xx_hal_tim.c **** /**
 644:Drivers/STM32F7xx_HAL_Driver/Src/stm32f7xx_hal_tim.c ****   * @brief  Initializes the TIM Output Compare according to the specified
 645:Drivers/STM32F7xx_HAL_Driver/Src/stm32f7xx_hal_tim.c ****   *         parameters in the TIM_HandleTypeDef and initializes the associated handle.
 646:Drivers/STM32F7xx_HAL_Driver/Src/stm32f7xx_hal_tim.c ****   * @note   Switching from Center Aligned counter mode to Edge counter mode (or reverse)
 647:Drivers/STM32F7xx_HAL_Driver/Src/stm32f7xx_hal_tim.c ****   *         requires a timer reset to avoid unexpected direction
 648:Drivers/STM32F7xx_HAL_Driver/Src/stm32f7xx_hal_tim.c ****   *         due to DIR bit readonly in center aligned mode.
 649:Drivers/STM32F7xx_HAL_Driver/Src/stm32f7xx_hal_tim.c ****   *         Ex: call @ref HAL_TIM_OC_DeInit() before HAL_TIM_OC_Init()
 650:Drivers/STM32F7xx_HAL_Driver/Src/stm32f7xx_hal_tim.c ****   * @param  htim TIM Output Compare handle
 651:Drivers/STM32F7xx_HAL_Driver/Src/stm32f7xx_hal_tim.c ****   * @retval HAL status
 652:Drivers/STM32F7xx_HAL_Driver/Src/stm32f7xx_hal_tim.c ****   */
 653:Drivers/STM32F7xx_HAL_Driver/Src/stm32f7xx_hal_tim.c **** HAL_StatusTypeDef HAL_TIM_OC_Init(TIM_HandleTypeDef *htim)
 654:Drivers/STM32F7xx_HAL_Driver/Src/stm32f7xx_hal_tim.c **** {
 655:Drivers/STM32F7xx_HAL_Driver/Src/stm32f7xx_hal_tim.c ****   /* Check the TIM handle allocation */
 656:Drivers/STM32F7xx_HAL_Driver/Src/stm32f7xx_hal_tim.c ****   if (htim == NULL)
 657:Drivers/STM32F7xx_HAL_Driver/Src/stm32f7xx_hal_tim.c ****   {
 658:Drivers/STM32F7xx_HAL_Driver/Src/stm32f7xx_hal_tim.c ****     return HAL_ERROR;
 659:Drivers/STM32F7xx_HAL_Driver/Src/stm32f7xx_hal_tim.c ****   }
 660:Drivers/STM32F7xx_HAL_Driver/Src/stm32f7xx_hal_tim.c **** 
 661:Drivers/STM32F7xx_HAL_Driver/Src/stm32f7xx_hal_tim.c ****   /* Check the parameters */
 662:Drivers/STM32F7xx_HAL_Driver/Src/stm32f7xx_hal_tim.c ****   assert_param(IS_TIM_INSTANCE(htim->Instance));
 663:Drivers/STM32F7xx_HAL_Driver/Src/stm32f7xx_hal_tim.c ****   assert_param(IS_TIM_COUNTER_MODE(htim->Init.CounterMode));
 664:Drivers/STM32F7xx_HAL_Driver/Src/stm32f7xx_hal_tim.c ****   assert_param(IS_TIM_CLOCKDIVISION_DIV(htim->Init.ClockDivision));
 665:Drivers/STM32F7xx_HAL_Driver/Src/stm32f7xx_hal_tim.c ****   assert_param(IS_TIM_PERIOD(htim, htim->Init.Period));
 666:Drivers/STM32F7xx_HAL_Driver/Src/stm32f7xx_hal_tim.c ****   assert_param(IS_TIM_AUTORELOAD_PRELOAD(htim->Init.AutoReloadPreload));
 667:Drivers/STM32F7xx_HAL_Driver/Src/stm32f7xx_hal_tim.c **** 
 668:Drivers/STM32F7xx_HAL_Driver/Src/stm32f7xx_hal_tim.c ****   if (htim->State == HAL_TIM_STATE_RESET)
 669:Drivers/STM32F7xx_HAL_Driver/Src/stm32f7xx_hal_tim.c ****   {
 670:Drivers/STM32F7xx_HAL_Driver/Src/stm32f7xx_hal_tim.c ****     /* Allocate lock resource and initialize it */
 671:Drivers/STM32F7xx_HAL_Driver/Src/stm32f7xx_hal_tim.c ****     htim->Lock = HAL_UNLOCKED;
 672:Drivers/STM32F7xx_HAL_Driver/Src/stm32f7xx_hal_tim.c **** 
 673:Drivers/STM32F7xx_HAL_Driver/Src/stm32f7xx_hal_tim.c **** #if (USE_HAL_TIM_REGISTER_CALLBACKS == 1)
 674:Drivers/STM32F7xx_HAL_Driver/Src/stm32f7xx_hal_tim.c ****     /* Reset interrupt callbacks to legacy weak callbacks */
 675:Drivers/STM32F7xx_HAL_Driver/Src/stm32f7xx_hal_tim.c ****     TIM_ResetCallback(htim);
ARM GAS  /tmp/ccxnnoCQ.s 			page 14


 676:Drivers/STM32F7xx_HAL_Driver/Src/stm32f7xx_hal_tim.c **** 
 677:Drivers/STM32F7xx_HAL_Driver/Src/stm32f7xx_hal_tim.c ****     if (htim->OC_MspInitCallback == NULL)
 678:Drivers/STM32F7xx_HAL_Driver/Src/stm32f7xx_hal_tim.c ****     {
 679:Drivers/STM32F7xx_HAL_Driver/Src/stm32f7xx_hal_tim.c ****       htim->OC_MspInitCallback = HAL_TIM_OC_MspInit;
 680:Drivers/STM32F7xx_HAL_Driver/Src/stm32f7xx_hal_tim.c ****     }
 681:Drivers/STM32F7xx_HAL_Driver/Src/stm32f7xx_hal_tim.c ****     /* Init the low level hardware : GPIO, CLOCK, NVIC */
 682:Drivers/STM32F7xx_HAL_Driver/Src/stm32f7xx_hal_tim.c ****     htim->OC_MspInitCallback(htim);
 683:Drivers/STM32F7xx_HAL_Driver/Src/stm32f7xx_hal_tim.c **** #else
 684:Drivers/STM32F7xx_HAL_Driver/Src/stm32f7xx_hal_tim.c ****     /* Init the low level hardware : GPIO, CLOCK, NVIC and DMA */
 685:Drivers/STM32F7xx_HAL_Driver/Src/stm32f7xx_hal_tim.c ****     HAL_TIM_OC_MspInit(htim);
 686:Drivers/STM32F7xx_HAL_Driver/Src/stm32f7xx_hal_tim.c **** #endif /* USE_HAL_TIM_REGISTER_CALLBACKS */
 687:Drivers/STM32F7xx_HAL_Driver/Src/stm32f7xx_hal_tim.c ****   }
 688:Drivers/STM32F7xx_HAL_Driver/Src/stm32f7xx_hal_tim.c **** 
 689:Drivers/STM32F7xx_HAL_Driver/Src/stm32f7xx_hal_tim.c ****   /* Set the TIM state */
 690:Drivers/STM32F7xx_HAL_Driver/Src/stm32f7xx_hal_tim.c ****   htim->State = HAL_TIM_STATE_BUSY;
 691:Drivers/STM32F7xx_HAL_Driver/Src/stm32f7xx_hal_tim.c **** 
 692:Drivers/STM32F7xx_HAL_Driver/Src/stm32f7xx_hal_tim.c ****   /* Init the base time for the Output Compare */
 693:Drivers/STM32F7xx_HAL_Driver/Src/stm32f7xx_hal_tim.c ****   TIM_Base_SetConfig(htim->Instance,  &htim->Init);
 694:Drivers/STM32F7xx_HAL_Driver/Src/stm32f7xx_hal_tim.c **** 
 695:Drivers/STM32F7xx_HAL_Driver/Src/stm32f7xx_hal_tim.c ****   /* Initialize the DMA burst operation state */
 696:Drivers/STM32F7xx_HAL_Driver/Src/stm32f7xx_hal_tim.c ****   htim->DMABurstState = HAL_DMA_BURST_STATE_READY;
 697:Drivers/STM32F7xx_HAL_Driver/Src/stm32f7xx_hal_tim.c **** 
 698:Drivers/STM32F7xx_HAL_Driver/Src/stm32f7xx_hal_tim.c ****   /* Initialize the TIM channels state */
 699:Drivers/STM32F7xx_HAL_Driver/Src/stm32f7xx_hal_tim.c ****   TIM_CHANNEL_STATE_SET_ALL(htim, HAL_TIM_CHANNEL_STATE_READY);
 700:Drivers/STM32F7xx_HAL_Driver/Src/stm32f7xx_hal_tim.c ****   TIM_CHANNEL_N_STATE_SET_ALL(htim, HAL_TIM_CHANNEL_STATE_READY);
 701:Drivers/STM32F7xx_HAL_Driver/Src/stm32f7xx_hal_tim.c **** 
 702:Drivers/STM32F7xx_HAL_Driver/Src/stm32f7xx_hal_tim.c ****   /* Initialize the TIM state*/
 703:Drivers/STM32F7xx_HAL_Driver/Src/stm32f7xx_hal_tim.c ****   htim->State = HAL_TIM_STATE_READY;
 704:Drivers/STM32F7xx_HAL_Driver/Src/stm32f7xx_hal_tim.c **** 
 705:Drivers/STM32F7xx_HAL_Driver/Src/stm32f7xx_hal_tim.c ****   return HAL_OK;
 706:Drivers/STM32F7xx_HAL_Driver/Src/stm32f7xx_hal_tim.c **** }
 707:Drivers/STM32F7xx_HAL_Driver/Src/stm32f7xx_hal_tim.c **** 
 708:Drivers/STM32F7xx_HAL_Driver/Src/stm32f7xx_hal_tim.c **** /**
 709:Drivers/STM32F7xx_HAL_Driver/Src/stm32f7xx_hal_tim.c ****   * @brief  DeInitializes the TIM peripheral
 710:Drivers/STM32F7xx_HAL_Driver/Src/stm32f7xx_hal_tim.c ****   * @param  htim TIM Output Compare handle
 711:Drivers/STM32F7xx_HAL_Driver/Src/stm32f7xx_hal_tim.c ****   * @retval HAL status
 712:Drivers/STM32F7xx_HAL_Driver/Src/stm32f7xx_hal_tim.c ****   */
 713:Drivers/STM32F7xx_HAL_Driver/Src/stm32f7xx_hal_tim.c **** HAL_StatusTypeDef HAL_TIM_OC_DeInit(TIM_HandleTypeDef *htim)
 714:Drivers/STM32F7xx_HAL_Driver/Src/stm32f7xx_hal_tim.c **** {
 715:Drivers/STM32F7xx_HAL_Driver/Src/stm32f7xx_hal_tim.c ****   /* Check the parameters */
 716:Drivers/STM32F7xx_HAL_Driver/Src/stm32f7xx_hal_tim.c ****   assert_param(IS_TIM_INSTANCE(htim->Instance));
 717:Drivers/STM32F7xx_HAL_Driver/Src/stm32f7xx_hal_tim.c **** 
 718:Drivers/STM32F7xx_HAL_Driver/Src/stm32f7xx_hal_tim.c ****   htim->State = HAL_TIM_STATE_BUSY;
 719:Drivers/STM32F7xx_HAL_Driver/Src/stm32f7xx_hal_tim.c **** 
 720:Drivers/STM32F7xx_HAL_Driver/Src/stm32f7xx_hal_tim.c ****   /* Disable the TIM Peripheral Clock */
 721:Drivers/STM32F7xx_HAL_Driver/Src/stm32f7xx_hal_tim.c ****   __HAL_TIM_DISABLE(htim);
 722:Drivers/STM32F7xx_HAL_Driver/Src/stm32f7xx_hal_tim.c **** 
 723:Drivers/STM32F7xx_HAL_Driver/Src/stm32f7xx_hal_tim.c **** #if (USE_HAL_TIM_REGISTER_CALLBACKS == 1)
 724:Drivers/STM32F7xx_HAL_Driver/Src/stm32f7xx_hal_tim.c ****   if (htim->OC_MspDeInitCallback == NULL)
 725:Drivers/STM32F7xx_HAL_Driver/Src/stm32f7xx_hal_tim.c ****   {
 726:Drivers/STM32F7xx_HAL_Driver/Src/stm32f7xx_hal_tim.c ****     htim->OC_MspDeInitCallback = HAL_TIM_OC_MspDeInit;
 727:Drivers/STM32F7xx_HAL_Driver/Src/stm32f7xx_hal_tim.c ****   }
 728:Drivers/STM32F7xx_HAL_Driver/Src/stm32f7xx_hal_tim.c ****   /* DeInit the low level hardware */
 729:Drivers/STM32F7xx_HAL_Driver/Src/stm32f7xx_hal_tim.c ****   htim->OC_MspDeInitCallback(htim);
 730:Drivers/STM32F7xx_HAL_Driver/Src/stm32f7xx_hal_tim.c **** #else
 731:Drivers/STM32F7xx_HAL_Driver/Src/stm32f7xx_hal_tim.c ****   /* DeInit the low level hardware: GPIO, CLOCK, NVIC and DMA */
 732:Drivers/STM32F7xx_HAL_Driver/Src/stm32f7xx_hal_tim.c ****   HAL_TIM_OC_MspDeInit(htim);
ARM GAS  /tmp/ccxnnoCQ.s 			page 15


 733:Drivers/STM32F7xx_HAL_Driver/Src/stm32f7xx_hal_tim.c **** #endif /* USE_HAL_TIM_REGISTER_CALLBACKS */
 734:Drivers/STM32F7xx_HAL_Driver/Src/stm32f7xx_hal_tim.c **** 
 735:Drivers/STM32F7xx_HAL_Driver/Src/stm32f7xx_hal_tim.c ****   /* Change the DMA burst operation state */
 736:Drivers/STM32F7xx_HAL_Driver/Src/stm32f7xx_hal_tim.c ****   htim->DMABurstState = HAL_DMA_BURST_STATE_RESET;
 737:Drivers/STM32F7xx_HAL_Driver/Src/stm32f7xx_hal_tim.c **** 
 738:Drivers/STM32F7xx_HAL_Driver/Src/stm32f7xx_hal_tim.c ****   /* Change the TIM channels state */
 739:Drivers/STM32F7xx_HAL_Driver/Src/stm32f7xx_hal_tim.c ****   TIM_CHANNEL_STATE_SET_ALL(htim, HAL_TIM_CHANNEL_STATE_RESET);
 740:Drivers/STM32F7xx_HAL_Driver/Src/stm32f7xx_hal_tim.c ****   TIM_CHANNEL_N_STATE_SET_ALL(htim, HAL_TIM_CHANNEL_STATE_RESET);
 741:Drivers/STM32F7xx_HAL_Driver/Src/stm32f7xx_hal_tim.c **** 
 742:Drivers/STM32F7xx_HAL_Driver/Src/stm32f7xx_hal_tim.c ****   /* Change TIM state */
 743:Drivers/STM32F7xx_HAL_Driver/Src/stm32f7xx_hal_tim.c ****   htim->State = HAL_TIM_STATE_RESET;
 744:Drivers/STM32F7xx_HAL_Driver/Src/stm32f7xx_hal_tim.c **** 
 745:Drivers/STM32F7xx_HAL_Driver/Src/stm32f7xx_hal_tim.c ****   /* Release Lock */
 746:Drivers/STM32F7xx_HAL_Driver/Src/stm32f7xx_hal_tim.c ****   __HAL_UNLOCK(htim);
 747:Drivers/STM32F7xx_HAL_Driver/Src/stm32f7xx_hal_tim.c **** 
 748:Drivers/STM32F7xx_HAL_Driver/Src/stm32f7xx_hal_tim.c ****   return HAL_OK;
 749:Drivers/STM32F7xx_HAL_Driver/Src/stm32f7xx_hal_tim.c **** }
 750:Drivers/STM32F7xx_HAL_Driver/Src/stm32f7xx_hal_tim.c **** 
 751:Drivers/STM32F7xx_HAL_Driver/Src/stm32f7xx_hal_tim.c **** /**
 752:Drivers/STM32F7xx_HAL_Driver/Src/stm32f7xx_hal_tim.c ****   * @brief  Initializes the TIM Output Compare MSP.
 753:Drivers/STM32F7xx_HAL_Driver/Src/stm32f7xx_hal_tim.c ****   * @param  htim TIM Output Compare handle
 754:Drivers/STM32F7xx_HAL_Driver/Src/stm32f7xx_hal_tim.c ****   * @retval None
 755:Drivers/STM32F7xx_HAL_Driver/Src/stm32f7xx_hal_tim.c ****   */
 756:Drivers/STM32F7xx_HAL_Driver/Src/stm32f7xx_hal_tim.c **** __weak void HAL_TIM_OC_MspInit(TIM_HandleTypeDef *htim)
 757:Drivers/STM32F7xx_HAL_Driver/Src/stm32f7xx_hal_tim.c **** {
  72              		.loc 1 757 1 is_stmt 1 view -0
  73              		.cfi_startproc
  74              		@ args = 0, pretend = 0, frame = 0
  75              		@ frame_needed = 0, uses_anonymous_args = 0
  76              		@ link register save eliminated.
 758:Drivers/STM32F7xx_HAL_Driver/Src/stm32f7xx_hal_tim.c ****   /* Prevent unused argument(s) compilation warning */
 759:Drivers/STM32F7xx_HAL_Driver/Src/stm32f7xx_hal_tim.c ****   UNUSED(htim);
  77              		.loc 1 759 3 view .LVU7
 760:Drivers/STM32F7xx_HAL_Driver/Src/stm32f7xx_hal_tim.c **** 
 761:Drivers/STM32F7xx_HAL_Driver/Src/stm32f7xx_hal_tim.c ****   /* NOTE : This function should not be modified, when the callback is needed,
 762:Drivers/STM32F7xx_HAL_Driver/Src/stm32f7xx_hal_tim.c ****             the HAL_TIM_OC_MspInit could be implemented in the user file
 763:Drivers/STM32F7xx_HAL_Driver/Src/stm32f7xx_hal_tim.c ****    */
 764:Drivers/STM32F7xx_HAL_Driver/Src/stm32f7xx_hal_tim.c **** }
  78              		.loc 1 764 1 is_stmt 0 view .LVU8
  79 0000 7047     		bx	lr
  80              		.cfi_endproc
  81              	.LFE153:
  83              		.section	.text.HAL_TIM_OC_MspDeInit,"ax",%progbits
  84              		.align	1
  85              		.weak	HAL_TIM_OC_MspDeInit
  86              		.syntax unified
  87              		.thumb
  88              		.thumb_func
  90              	HAL_TIM_OC_MspDeInit:
  91              	.LVL3:
  92              	.LFB154:
 765:Drivers/STM32F7xx_HAL_Driver/Src/stm32f7xx_hal_tim.c **** 
 766:Drivers/STM32F7xx_HAL_Driver/Src/stm32f7xx_hal_tim.c **** /**
 767:Drivers/STM32F7xx_HAL_Driver/Src/stm32f7xx_hal_tim.c ****   * @brief  DeInitializes TIM Output Compare MSP.
 768:Drivers/STM32F7xx_HAL_Driver/Src/stm32f7xx_hal_tim.c ****   * @param  htim TIM Output Compare handle
 769:Drivers/STM32F7xx_HAL_Driver/Src/stm32f7xx_hal_tim.c ****   * @retval None
 770:Drivers/STM32F7xx_HAL_Driver/Src/stm32f7xx_hal_tim.c ****   */
ARM GAS  /tmp/ccxnnoCQ.s 			page 16


 771:Drivers/STM32F7xx_HAL_Driver/Src/stm32f7xx_hal_tim.c **** __weak void HAL_TIM_OC_MspDeInit(TIM_HandleTypeDef *htim)
 772:Drivers/STM32F7xx_HAL_Driver/Src/stm32f7xx_hal_tim.c **** {
  93              		.loc 1 772 1 is_stmt 1 view -0
  94              		.cfi_startproc
  95              		@ args = 0, pretend = 0, frame = 0
  96              		@ frame_needed = 0, uses_anonymous_args = 0
  97              		@ link register save eliminated.
 773:Drivers/STM32F7xx_HAL_Driver/Src/stm32f7xx_hal_tim.c ****   /* Prevent unused argument(s) compilation warning */
 774:Drivers/STM32F7xx_HAL_Driver/Src/stm32f7xx_hal_tim.c ****   UNUSED(htim);
  98              		.loc 1 774 3 view .LVU10
 775:Drivers/STM32F7xx_HAL_Driver/Src/stm32f7xx_hal_tim.c **** 
 776:Drivers/STM32F7xx_HAL_Driver/Src/stm32f7xx_hal_tim.c ****   /* NOTE : This function should not be modified, when the callback is needed,
 777:Drivers/STM32F7xx_HAL_Driver/Src/stm32f7xx_hal_tim.c ****             the HAL_TIM_OC_MspDeInit could be implemented in the user file
 778:Drivers/STM32F7xx_HAL_Driver/Src/stm32f7xx_hal_tim.c ****    */
 779:Drivers/STM32F7xx_HAL_Driver/Src/stm32f7xx_hal_tim.c **** }
  99              		.loc 1 779 1 is_stmt 0 view .LVU11
 100 0000 7047     		bx	lr
 101              		.cfi_endproc
 102              	.LFE154:
 104              		.section	.text.HAL_TIM_PWM_MspInit,"ax",%progbits
 105              		.align	1
 106              		.weak	HAL_TIM_PWM_MspInit
 107              		.syntax unified
 108              		.thumb
 109              		.thumb_func
 111              	HAL_TIM_PWM_MspInit:
 112              	.LVL4:
 113              	.LFB163:
 780:Drivers/STM32F7xx_HAL_Driver/Src/stm32f7xx_hal_tim.c **** 
 781:Drivers/STM32F7xx_HAL_Driver/Src/stm32f7xx_hal_tim.c **** /**
 782:Drivers/STM32F7xx_HAL_Driver/Src/stm32f7xx_hal_tim.c ****   * @brief  Starts the TIM Output Compare signal generation.
 783:Drivers/STM32F7xx_HAL_Driver/Src/stm32f7xx_hal_tim.c ****   * @param  htim TIM Output Compare handle
 784:Drivers/STM32F7xx_HAL_Driver/Src/stm32f7xx_hal_tim.c ****   * @param  Channel TIM Channel to be enabled
 785:Drivers/STM32F7xx_HAL_Driver/Src/stm32f7xx_hal_tim.c ****   *          This parameter can be one of the following values:
 786:Drivers/STM32F7xx_HAL_Driver/Src/stm32f7xx_hal_tim.c ****   *            @arg TIM_CHANNEL_1: TIM Channel 1 selected
 787:Drivers/STM32F7xx_HAL_Driver/Src/stm32f7xx_hal_tim.c ****   *            @arg TIM_CHANNEL_2: TIM Channel 2 selected
 788:Drivers/STM32F7xx_HAL_Driver/Src/stm32f7xx_hal_tim.c ****   *            @arg TIM_CHANNEL_3: TIM Channel 3 selected
 789:Drivers/STM32F7xx_HAL_Driver/Src/stm32f7xx_hal_tim.c ****   *            @arg TIM_CHANNEL_4: TIM Channel 4 selected
 790:Drivers/STM32F7xx_HAL_Driver/Src/stm32f7xx_hal_tim.c ****   *            @arg TIM_CHANNEL_5: TIM Channel 5 selected
 791:Drivers/STM32F7xx_HAL_Driver/Src/stm32f7xx_hal_tim.c ****   *            @arg TIM_CHANNEL_6: TIM Channel 6 selected
 792:Drivers/STM32F7xx_HAL_Driver/Src/stm32f7xx_hal_tim.c ****   * @retval HAL status
 793:Drivers/STM32F7xx_HAL_Driver/Src/stm32f7xx_hal_tim.c ****   */
 794:Drivers/STM32F7xx_HAL_Driver/Src/stm32f7xx_hal_tim.c **** HAL_StatusTypeDef HAL_TIM_OC_Start(TIM_HandleTypeDef *htim, uint32_t Channel)
 795:Drivers/STM32F7xx_HAL_Driver/Src/stm32f7xx_hal_tim.c **** {
 796:Drivers/STM32F7xx_HAL_Driver/Src/stm32f7xx_hal_tim.c ****   uint32_t tmpsmcr;
 797:Drivers/STM32F7xx_HAL_Driver/Src/stm32f7xx_hal_tim.c **** 
 798:Drivers/STM32F7xx_HAL_Driver/Src/stm32f7xx_hal_tim.c ****   /* Check the parameters */
 799:Drivers/STM32F7xx_HAL_Driver/Src/stm32f7xx_hal_tim.c ****   assert_param(IS_TIM_CCX_INSTANCE(htim->Instance, Channel));
 800:Drivers/STM32F7xx_HAL_Driver/Src/stm32f7xx_hal_tim.c **** 
 801:Drivers/STM32F7xx_HAL_Driver/Src/stm32f7xx_hal_tim.c ****   /* Check the TIM channel state */
 802:Drivers/STM32F7xx_HAL_Driver/Src/stm32f7xx_hal_tim.c ****   if (TIM_CHANNEL_STATE_GET(htim, Channel) != HAL_TIM_CHANNEL_STATE_READY)
 803:Drivers/STM32F7xx_HAL_Driver/Src/stm32f7xx_hal_tim.c ****   {
 804:Drivers/STM32F7xx_HAL_Driver/Src/stm32f7xx_hal_tim.c ****     return HAL_ERROR;
 805:Drivers/STM32F7xx_HAL_Driver/Src/stm32f7xx_hal_tim.c ****   }
 806:Drivers/STM32F7xx_HAL_Driver/Src/stm32f7xx_hal_tim.c **** 
 807:Drivers/STM32F7xx_HAL_Driver/Src/stm32f7xx_hal_tim.c ****   /* Set the TIM channel state */
 808:Drivers/STM32F7xx_HAL_Driver/Src/stm32f7xx_hal_tim.c ****   TIM_CHANNEL_STATE_SET(htim, Channel, HAL_TIM_CHANNEL_STATE_BUSY);
ARM GAS  /tmp/ccxnnoCQ.s 			page 17


 809:Drivers/STM32F7xx_HAL_Driver/Src/stm32f7xx_hal_tim.c **** 
 810:Drivers/STM32F7xx_HAL_Driver/Src/stm32f7xx_hal_tim.c ****   /* Enable the Output compare channel */
 811:Drivers/STM32F7xx_HAL_Driver/Src/stm32f7xx_hal_tim.c ****   TIM_CCxChannelCmd(htim->Instance, Channel, TIM_CCx_ENABLE);
 812:Drivers/STM32F7xx_HAL_Driver/Src/stm32f7xx_hal_tim.c **** 
 813:Drivers/STM32F7xx_HAL_Driver/Src/stm32f7xx_hal_tim.c ****   if (IS_TIM_BREAK_INSTANCE(htim->Instance) != RESET)
 814:Drivers/STM32F7xx_HAL_Driver/Src/stm32f7xx_hal_tim.c ****   {
 815:Drivers/STM32F7xx_HAL_Driver/Src/stm32f7xx_hal_tim.c ****     /* Enable the main output */
 816:Drivers/STM32F7xx_HAL_Driver/Src/stm32f7xx_hal_tim.c ****     __HAL_TIM_MOE_ENABLE(htim);
 817:Drivers/STM32F7xx_HAL_Driver/Src/stm32f7xx_hal_tim.c ****   }
 818:Drivers/STM32F7xx_HAL_Driver/Src/stm32f7xx_hal_tim.c **** 
 819:Drivers/STM32F7xx_HAL_Driver/Src/stm32f7xx_hal_tim.c ****   /* Enable the Peripheral, except in trigger mode where enable is automatically done with trigger 
 820:Drivers/STM32F7xx_HAL_Driver/Src/stm32f7xx_hal_tim.c ****   if (IS_TIM_SLAVE_INSTANCE(htim->Instance))
 821:Drivers/STM32F7xx_HAL_Driver/Src/stm32f7xx_hal_tim.c ****   {
 822:Drivers/STM32F7xx_HAL_Driver/Src/stm32f7xx_hal_tim.c ****     tmpsmcr = htim->Instance->SMCR & TIM_SMCR_SMS;
 823:Drivers/STM32F7xx_HAL_Driver/Src/stm32f7xx_hal_tim.c ****     if (!IS_TIM_SLAVEMODE_TRIGGER_ENABLED(tmpsmcr))
 824:Drivers/STM32F7xx_HAL_Driver/Src/stm32f7xx_hal_tim.c ****     {
 825:Drivers/STM32F7xx_HAL_Driver/Src/stm32f7xx_hal_tim.c ****       __HAL_TIM_ENABLE(htim);
 826:Drivers/STM32F7xx_HAL_Driver/Src/stm32f7xx_hal_tim.c ****     }
 827:Drivers/STM32F7xx_HAL_Driver/Src/stm32f7xx_hal_tim.c ****   }
 828:Drivers/STM32F7xx_HAL_Driver/Src/stm32f7xx_hal_tim.c ****   else
 829:Drivers/STM32F7xx_HAL_Driver/Src/stm32f7xx_hal_tim.c ****   {
 830:Drivers/STM32F7xx_HAL_Driver/Src/stm32f7xx_hal_tim.c ****     __HAL_TIM_ENABLE(htim);
 831:Drivers/STM32F7xx_HAL_Driver/Src/stm32f7xx_hal_tim.c ****   }
 832:Drivers/STM32F7xx_HAL_Driver/Src/stm32f7xx_hal_tim.c **** 
 833:Drivers/STM32F7xx_HAL_Driver/Src/stm32f7xx_hal_tim.c ****   /* Return function status */
 834:Drivers/STM32F7xx_HAL_Driver/Src/stm32f7xx_hal_tim.c ****   return HAL_OK;
 835:Drivers/STM32F7xx_HAL_Driver/Src/stm32f7xx_hal_tim.c **** }
 836:Drivers/STM32F7xx_HAL_Driver/Src/stm32f7xx_hal_tim.c **** 
 837:Drivers/STM32F7xx_HAL_Driver/Src/stm32f7xx_hal_tim.c **** /**
 838:Drivers/STM32F7xx_HAL_Driver/Src/stm32f7xx_hal_tim.c ****   * @brief  Stops the TIM Output Compare signal generation.
 839:Drivers/STM32F7xx_HAL_Driver/Src/stm32f7xx_hal_tim.c ****   * @param  htim TIM Output Compare handle
 840:Drivers/STM32F7xx_HAL_Driver/Src/stm32f7xx_hal_tim.c ****   * @param  Channel TIM Channel to be disabled
 841:Drivers/STM32F7xx_HAL_Driver/Src/stm32f7xx_hal_tim.c ****   *          This parameter can be one of the following values:
 842:Drivers/STM32F7xx_HAL_Driver/Src/stm32f7xx_hal_tim.c ****   *            @arg TIM_CHANNEL_1: TIM Channel 1 selected
 843:Drivers/STM32F7xx_HAL_Driver/Src/stm32f7xx_hal_tim.c ****   *            @arg TIM_CHANNEL_2: TIM Channel 2 selected
 844:Drivers/STM32F7xx_HAL_Driver/Src/stm32f7xx_hal_tim.c ****   *            @arg TIM_CHANNEL_3: TIM Channel 3 selected
 845:Drivers/STM32F7xx_HAL_Driver/Src/stm32f7xx_hal_tim.c ****   *            @arg TIM_CHANNEL_4: TIM Channel 4 selected
 846:Drivers/STM32F7xx_HAL_Driver/Src/stm32f7xx_hal_tim.c ****   *            @arg TIM_CHANNEL_5: TIM Channel 5 selected
 847:Drivers/STM32F7xx_HAL_Driver/Src/stm32f7xx_hal_tim.c ****   *            @arg TIM_CHANNEL_6: TIM Channel 6 selected
 848:Drivers/STM32F7xx_HAL_Driver/Src/stm32f7xx_hal_tim.c ****   * @retval HAL status
 849:Drivers/STM32F7xx_HAL_Driver/Src/stm32f7xx_hal_tim.c ****   */
 850:Drivers/STM32F7xx_HAL_Driver/Src/stm32f7xx_hal_tim.c **** HAL_StatusTypeDef HAL_TIM_OC_Stop(TIM_HandleTypeDef *htim, uint32_t Channel)
 851:Drivers/STM32F7xx_HAL_Driver/Src/stm32f7xx_hal_tim.c **** {
 852:Drivers/STM32F7xx_HAL_Driver/Src/stm32f7xx_hal_tim.c ****   /* Check the parameters */
 853:Drivers/STM32F7xx_HAL_Driver/Src/stm32f7xx_hal_tim.c ****   assert_param(IS_TIM_CCX_INSTANCE(htim->Instance, Channel));
 854:Drivers/STM32F7xx_HAL_Driver/Src/stm32f7xx_hal_tim.c **** 
 855:Drivers/STM32F7xx_HAL_Driver/Src/stm32f7xx_hal_tim.c ****   /* Disable the Output compare channel */
 856:Drivers/STM32F7xx_HAL_Driver/Src/stm32f7xx_hal_tim.c ****   TIM_CCxChannelCmd(htim->Instance, Channel, TIM_CCx_DISABLE);
 857:Drivers/STM32F7xx_HAL_Driver/Src/stm32f7xx_hal_tim.c **** 
 858:Drivers/STM32F7xx_HAL_Driver/Src/stm32f7xx_hal_tim.c ****   if (IS_TIM_BREAK_INSTANCE(htim->Instance) != RESET)
 859:Drivers/STM32F7xx_HAL_Driver/Src/stm32f7xx_hal_tim.c ****   {
 860:Drivers/STM32F7xx_HAL_Driver/Src/stm32f7xx_hal_tim.c ****     /* Disable the Main Output */
 861:Drivers/STM32F7xx_HAL_Driver/Src/stm32f7xx_hal_tim.c ****     __HAL_TIM_MOE_DISABLE(htim);
 862:Drivers/STM32F7xx_HAL_Driver/Src/stm32f7xx_hal_tim.c ****   }
 863:Drivers/STM32F7xx_HAL_Driver/Src/stm32f7xx_hal_tim.c **** 
 864:Drivers/STM32F7xx_HAL_Driver/Src/stm32f7xx_hal_tim.c ****   /* Disable the Peripheral */
 865:Drivers/STM32F7xx_HAL_Driver/Src/stm32f7xx_hal_tim.c ****   __HAL_TIM_DISABLE(htim);
ARM GAS  /tmp/ccxnnoCQ.s 			page 18


 866:Drivers/STM32F7xx_HAL_Driver/Src/stm32f7xx_hal_tim.c **** 
 867:Drivers/STM32F7xx_HAL_Driver/Src/stm32f7xx_hal_tim.c ****   /* Set the TIM channel state */
 868:Drivers/STM32F7xx_HAL_Driver/Src/stm32f7xx_hal_tim.c ****   TIM_CHANNEL_STATE_SET(htim, Channel, HAL_TIM_CHANNEL_STATE_READY);
 869:Drivers/STM32F7xx_HAL_Driver/Src/stm32f7xx_hal_tim.c **** 
 870:Drivers/STM32F7xx_HAL_Driver/Src/stm32f7xx_hal_tim.c ****   /* Return function status */
 871:Drivers/STM32F7xx_HAL_Driver/Src/stm32f7xx_hal_tim.c ****   return HAL_OK;
 872:Drivers/STM32F7xx_HAL_Driver/Src/stm32f7xx_hal_tim.c **** }
 873:Drivers/STM32F7xx_HAL_Driver/Src/stm32f7xx_hal_tim.c **** 
 874:Drivers/STM32F7xx_HAL_Driver/Src/stm32f7xx_hal_tim.c **** /**
 875:Drivers/STM32F7xx_HAL_Driver/Src/stm32f7xx_hal_tim.c ****   * @brief  Starts the TIM Output Compare signal generation in interrupt mode.
 876:Drivers/STM32F7xx_HAL_Driver/Src/stm32f7xx_hal_tim.c ****   * @param  htim TIM Output Compare handle
 877:Drivers/STM32F7xx_HAL_Driver/Src/stm32f7xx_hal_tim.c ****   * @param  Channel TIM Channel to be enabled
 878:Drivers/STM32F7xx_HAL_Driver/Src/stm32f7xx_hal_tim.c ****   *          This parameter can be one of the following values:
 879:Drivers/STM32F7xx_HAL_Driver/Src/stm32f7xx_hal_tim.c ****   *            @arg TIM_CHANNEL_1: TIM Channel 1 selected
 880:Drivers/STM32F7xx_HAL_Driver/Src/stm32f7xx_hal_tim.c ****   *            @arg TIM_CHANNEL_2: TIM Channel 2 selected
 881:Drivers/STM32F7xx_HAL_Driver/Src/stm32f7xx_hal_tim.c ****   *            @arg TIM_CHANNEL_3: TIM Channel 3 selected
 882:Drivers/STM32F7xx_HAL_Driver/Src/stm32f7xx_hal_tim.c ****   *            @arg TIM_CHANNEL_4: TIM Channel 4 selected
 883:Drivers/STM32F7xx_HAL_Driver/Src/stm32f7xx_hal_tim.c ****   * @retval HAL status
 884:Drivers/STM32F7xx_HAL_Driver/Src/stm32f7xx_hal_tim.c ****   */
 885:Drivers/STM32F7xx_HAL_Driver/Src/stm32f7xx_hal_tim.c **** HAL_StatusTypeDef HAL_TIM_OC_Start_IT(TIM_HandleTypeDef *htim, uint32_t Channel)
 886:Drivers/STM32F7xx_HAL_Driver/Src/stm32f7xx_hal_tim.c **** {
 887:Drivers/STM32F7xx_HAL_Driver/Src/stm32f7xx_hal_tim.c ****   HAL_StatusTypeDef status = HAL_OK;
 888:Drivers/STM32F7xx_HAL_Driver/Src/stm32f7xx_hal_tim.c ****   uint32_t tmpsmcr;
 889:Drivers/STM32F7xx_HAL_Driver/Src/stm32f7xx_hal_tim.c **** 
 890:Drivers/STM32F7xx_HAL_Driver/Src/stm32f7xx_hal_tim.c ****   /* Check the parameters */
 891:Drivers/STM32F7xx_HAL_Driver/Src/stm32f7xx_hal_tim.c ****   assert_param(IS_TIM_CCX_INSTANCE(htim->Instance, Channel));
 892:Drivers/STM32F7xx_HAL_Driver/Src/stm32f7xx_hal_tim.c **** 
 893:Drivers/STM32F7xx_HAL_Driver/Src/stm32f7xx_hal_tim.c ****   /* Check the TIM channel state */
 894:Drivers/STM32F7xx_HAL_Driver/Src/stm32f7xx_hal_tim.c ****   if (TIM_CHANNEL_STATE_GET(htim, Channel) != HAL_TIM_CHANNEL_STATE_READY)
 895:Drivers/STM32F7xx_HAL_Driver/Src/stm32f7xx_hal_tim.c ****   {
 896:Drivers/STM32F7xx_HAL_Driver/Src/stm32f7xx_hal_tim.c ****     return HAL_ERROR;
 897:Drivers/STM32F7xx_HAL_Driver/Src/stm32f7xx_hal_tim.c ****   }
 898:Drivers/STM32F7xx_HAL_Driver/Src/stm32f7xx_hal_tim.c **** 
 899:Drivers/STM32F7xx_HAL_Driver/Src/stm32f7xx_hal_tim.c ****   /* Set the TIM channel state */
 900:Drivers/STM32F7xx_HAL_Driver/Src/stm32f7xx_hal_tim.c ****   TIM_CHANNEL_STATE_SET(htim, Channel, HAL_TIM_CHANNEL_STATE_BUSY);
 901:Drivers/STM32F7xx_HAL_Driver/Src/stm32f7xx_hal_tim.c **** 
 902:Drivers/STM32F7xx_HAL_Driver/Src/stm32f7xx_hal_tim.c ****   switch (Channel)
 903:Drivers/STM32F7xx_HAL_Driver/Src/stm32f7xx_hal_tim.c ****   {
 904:Drivers/STM32F7xx_HAL_Driver/Src/stm32f7xx_hal_tim.c ****     case TIM_CHANNEL_1:
 905:Drivers/STM32F7xx_HAL_Driver/Src/stm32f7xx_hal_tim.c ****     {
 906:Drivers/STM32F7xx_HAL_Driver/Src/stm32f7xx_hal_tim.c ****       /* Enable the TIM Capture/Compare 1 interrupt */
 907:Drivers/STM32F7xx_HAL_Driver/Src/stm32f7xx_hal_tim.c ****       __HAL_TIM_ENABLE_IT(htim, TIM_IT_CC1);
 908:Drivers/STM32F7xx_HAL_Driver/Src/stm32f7xx_hal_tim.c ****       break;
 909:Drivers/STM32F7xx_HAL_Driver/Src/stm32f7xx_hal_tim.c ****     }
 910:Drivers/STM32F7xx_HAL_Driver/Src/stm32f7xx_hal_tim.c **** 
 911:Drivers/STM32F7xx_HAL_Driver/Src/stm32f7xx_hal_tim.c ****     case TIM_CHANNEL_2:
 912:Drivers/STM32F7xx_HAL_Driver/Src/stm32f7xx_hal_tim.c ****     {
 913:Drivers/STM32F7xx_HAL_Driver/Src/stm32f7xx_hal_tim.c ****       /* Enable the TIM Capture/Compare 2 interrupt */
 914:Drivers/STM32F7xx_HAL_Driver/Src/stm32f7xx_hal_tim.c ****       __HAL_TIM_ENABLE_IT(htim, TIM_IT_CC2);
 915:Drivers/STM32F7xx_HAL_Driver/Src/stm32f7xx_hal_tim.c ****       break;
 916:Drivers/STM32F7xx_HAL_Driver/Src/stm32f7xx_hal_tim.c ****     }
 917:Drivers/STM32F7xx_HAL_Driver/Src/stm32f7xx_hal_tim.c **** 
 918:Drivers/STM32F7xx_HAL_Driver/Src/stm32f7xx_hal_tim.c ****     case TIM_CHANNEL_3:
 919:Drivers/STM32F7xx_HAL_Driver/Src/stm32f7xx_hal_tim.c ****     {
 920:Drivers/STM32F7xx_HAL_Driver/Src/stm32f7xx_hal_tim.c ****       /* Enable the TIM Capture/Compare 3 interrupt */
 921:Drivers/STM32F7xx_HAL_Driver/Src/stm32f7xx_hal_tim.c ****       __HAL_TIM_ENABLE_IT(htim, TIM_IT_CC3);
 922:Drivers/STM32F7xx_HAL_Driver/Src/stm32f7xx_hal_tim.c ****       break;
ARM GAS  /tmp/ccxnnoCQ.s 			page 19


 923:Drivers/STM32F7xx_HAL_Driver/Src/stm32f7xx_hal_tim.c ****     }
 924:Drivers/STM32F7xx_HAL_Driver/Src/stm32f7xx_hal_tim.c **** 
 925:Drivers/STM32F7xx_HAL_Driver/Src/stm32f7xx_hal_tim.c ****     case TIM_CHANNEL_4:
 926:Drivers/STM32F7xx_HAL_Driver/Src/stm32f7xx_hal_tim.c ****     {
 927:Drivers/STM32F7xx_HAL_Driver/Src/stm32f7xx_hal_tim.c ****       /* Enable the TIM Capture/Compare 4 interrupt */
 928:Drivers/STM32F7xx_HAL_Driver/Src/stm32f7xx_hal_tim.c ****       __HAL_TIM_ENABLE_IT(htim, TIM_IT_CC4);
 929:Drivers/STM32F7xx_HAL_Driver/Src/stm32f7xx_hal_tim.c ****       break;
 930:Drivers/STM32F7xx_HAL_Driver/Src/stm32f7xx_hal_tim.c ****     }
 931:Drivers/STM32F7xx_HAL_Driver/Src/stm32f7xx_hal_tim.c **** 
 932:Drivers/STM32F7xx_HAL_Driver/Src/stm32f7xx_hal_tim.c ****     default:
 933:Drivers/STM32F7xx_HAL_Driver/Src/stm32f7xx_hal_tim.c ****       status = HAL_ERROR;
 934:Drivers/STM32F7xx_HAL_Driver/Src/stm32f7xx_hal_tim.c ****       break;
 935:Drivers/STM32F7xx_HAL_Driver/Src/stm32f7xx_hal_tim.c ****   }
 936:Drivers/STM32F7xx_HAL_Driver/Src/stm32f7xx_hal_tim.c **** 
 937:Drivers/STM32F7xx_HAL_Driver/Src/stm32f7xx_hal_tim.c ****   if (status == HAL_OK)
 938:Drivers/STM32F7xx_HAL_Driver/Src/stm32f7xx_hal_tim.c ****   {
 939:Drivers/STM32F7xx_HAL_Driver/Src/stm32f7xx_hal_tim.c ****     /* Enable the Output compare channel */
 940:Drivers/STM32F7xx_HAL_Driver/Src/stm32f7xx_hal_tim.c ****     TIM_CCxChannelCmd(htim->Instance, Channel, TIM_CCx_ENABLE);
 941:Drivers/STM32F7xx_HAL_Driver/Src/stm32f7xx_hal_tim.c **** 
 942:Drivers/STM32F7xx_HAL_Driver/Src/stm32f7xx_hal_tim.c ****     if (IS_TIM_BREAK_INSTANCE(htim->Instance) != RESET)
 943:Drivers/STM32F7xx_HAL_Driver/Src/stm32f7xx_hal_tim.c ****     {
 944:Drivers/STM32F7xx_HAL_Driver/Src/stm32f7xx_hal_tim.c ****       /* Enable the main output */
 945:Drivers/STM32F7xx_HAL_Driver/Src/stm32f7xx_hal_tim.c ****       __HAL_TIM_MOE_ENABLE(htim);
 946:Drivers/STM32F7xx_HAL_Driver/Src/stm32f7xx_hal_tim.c ****     }
 947:Drivers/STM32F7xx_HAL_Driver/Src/stm32f7xx_hal_tim.c **** 
 948:Drivers/STM32F7xx_HAL_Driver/Src/stm32f7xx_hal_tim.c ****     /* Enable the Peripheral, except in trigger mode where enable is automatically done with trigge
 949:Drivers/STM32F7xx_HAL_Driver/Src/stm32f7xx_hal_tim.c ****     if (IS_TIM_SLAVE_INSTANCE(htim->Instance))
 950:Drivers/STM32F7xx_HAL_Driver/Src/stm32f7xx_hal_tim.c ****     {
 951:Drivers/STM32F7xx_HAL_Driver/Src/stm32f7xx_hal_tim.c ****       tmpsmcr = htim->Instance->SMCR & TIM_SMCR_SMS;
 952:Drivers/STM32F7xx_HAL_Driver/Src/stm32f7xx_hal_tim.c ****       if (!IS_TIM_SLAVEMODE_TRIGGER_ENABLED(tmpsmcr))
 953:Drivers/STM32F7xx_HAL_Driver/Src/stm32f7xx_hal_tim.c ****       {
 954:Drivers/STM32F7xx_HAL_Driver/Src/stm32f7xx_hal_tim.c ****         __HAL_TIM_ENABLE(htim);
 955:Drivers/STM32F7xx_HAL_Driver/Src/stm32f7xx_hal_tim.c ****       }
 956:Drivers/STM32F7xx_HAL_Driver/Src/stm32f7xx_hal_tim.c ****     }
 957:Drivers/STM32F7xx_HAL_Driver/Src/stm32f7xx_hal_tim.c ****     else
 958:Drivers/STM32F7xx_HAL_Driver/Src/stm32f7xx_hal_tim.c ****     {
 959:Drivers/STM32F7xx_HAL_Driver/Src/stm32f7xx_hal_tim.c ****       __HAL_TIM_ENABLE(htim);
 960:Drivers/STM32F7xx_HAL_Driver/Src/stm32f7xx_hal_tim.c ****     }
 961:Drivers/STM32F7xx_HAL_Driver/Src/stm32f7xx_hal_tim.c ****   }
 962:Drivers/STM32F7xx_HAL_Driver/Src/stm32f7xx_hal_tim.c **** 
 963:Drivers/STM32F7xx_HAL_Driver/Src/stm32f7xx_hal_tim.c ****   /* Return function status */
 964:Drivers/STM32F7xx_HAL_Driver/Src/stm32f7xx_hal_tim.c ****   return status;
 965:Drivers/STM32F7xx_HAL_Driver/Src/stm32f7xx_hal_tim.c **** }
 966:Drivers/STM32F7xx_HAL_Driver/Src/stm32f7xx_hal_tim.c **** 
 967:Drivers/STM32F7xx_HAL_Driver/Src/stm32f7xx_hal_tim.c **** /**
 968:Drivers/STM32F7xx_HAL_Driver/Src/stm32f7xx_hal_tim.c ****   * @brief  Stops the TIM Output Compare signal generation in interrupt mode.
 969:Drivers/STM32F7xx_HAL_Driver/Src/stm32f7xx_hal_tim.c ****   * @param  htim TIM Output Compare handle
 970:Drivers/STM32F7xx_HAL_Driver/Src/stm32f7xx_hal_tim.c ****   * @param  Channel TIM Channel to be disabled
 971:Drivers/STM32F7xx_HAL_Driver/Src/stm32f7xx_hal_tim.c ****   *          This parameter can be one of the following values:
 972:Drivers/STM32F7xx_HAL_Driver/Src/stm32f7xx_hal_tim.c ****   *            @arg TIM_CHANNEL_1: TIM Channel 1 selected
 973:Drivers/STM32F7xx_HAL_Driver/Src/stm32f7xx_hal_tim.c ****   *            @arg TIM_CHANNEL_2: TIM Channel 2 selected
 974:Drivers/STM32F7xx_HAL_Driver/Src/stm32f7xx_hal_tim.c ****   *            @arg TIM_CHANNEL_3: TIM Channel 3 selected
 975:Drivers/STM32F7xx_HAL_Driver/Src/stm32f7xx_hal_tim.c ****   *            @arg TIM_CHANNEL_4: TIM Channel 4 selected
 976:Drivers/STM32F7xx_HAL_Driver/Src/stm32f7xx_hal_tim.c ****   * @retval HAL status
 977:Drivers/STM32F7xx_HAL_Driver/Src/stm32f7xx_hal_tim.c ****   */
 978:Drivers/STM32F7xx_HAL_Driver/Src/stm32f7xx_hal_tim.c **** HAL_StatusTypeDef HAL_TIM_OC_Stop_IT(TIM_HandleTypeDef *htim, uint32_t Channel)
 979:Drivers/STM32F7xx_HAL_Driver/Src/stm32f7xx_hal_tim.c **** {
ARM GAS  /tmp/ccxnnoCQ.s 			page 20


 980:Drivers/STM32F7xx_HAL_Driver/Src/stm32f7xx_hal_tim.c ****   HAL_StatusTypeDef status = HAL_OK;
 981:Drivers/STM32F7xx_HAL_Driver/Src/stm32f7xx_hal_tim.c **** 
 982:Drivers/STM32F7xx_HAL_Driver/Src/stm32f7xx_hal_tim.c ****   /* Check the parameters */
 983:Drivers/STM32F7xx_HAL_Driver/Src/stm32f7xx_hal_tim.c ****   assert_param(IS_TIM_CCX_INSTANCE(htim->Instance, Channel));
 984:Drivers/STM32F7xx_HAL_Driver/Src/stm32f7xx_hal_tim.c **** 
 985:Drivers/STM32F7xx_HAL_Driver/Src/stm32f7xx_hal_tim.c ****   switch (Channel)
 986:Drivers/STM32F7xx_HAL_Driver/Src/stm32f7xx_hal_tim.c ****   {
 987:Drivers/STM32F7xx_HAL_Driver/Src/stm32f7xx_hal_tim.c ****     case TIM_CHANNEL_1:
 988:Drivers/STM32F7xx_HAL_Driver/Src/stm32f7xx_hal_tim.c ****     {
 989:Drivers/STM32F7xx_HAL_Driver/Src/stm32f7xx_hal_tim.c ****       /* Disable the TIM Capture/Compare 1 interrupt */
 990:Drivers/STM32F7xx_HAL_Driver/Src/stm32f7xx_hal_tim.c ****       __HAL_TIM_DISABLE_IT(htim, TIM_IT_CC1);
 991:Drivers/STM32F7xx_HAL_Driver/Src/stm32f7xx_hal_tim.c ****       break;
 992:Drivers/STM32F7xx_HAL_Driver/Src/stm32f7xx_hal_tim.c ****     }
 993:Drivers/STM32F7xx_HAL_Driver/Src/stm32f7xx_hal_tim.c **** 
 994:Drivers/STM32F7xx_HAL_Driver/Src/stm32f7xx_hal_tim.c ****     case TIM_CHANNEL_2:
 995:Drivers/STM32F7xx_HAL_Driver/Src/stm32f7xx_hal_tim.c ****     {
 996:Drivers/STM32F7xx_HAL_Driver/Src/stm32f7xx_hal_tim.c ****       /* Disable the TIM Capture/Compare 2 interrupt */
 997:Drivers/STM32F7xx_HAL_Driver/Src/stm32f7xx_hal_tim.c ****       __HAL_TIM_DISABLE_IT(htim, TIM_IT_CC2);
 998:Drivers/STM32F7xx_HAL_Driver/Src/stm32f7xx_hal_tim.c ****       break;
 999:Drivers/STM32F7xx_HAL_Driver/Src/stm32f7xx_hal_tim.c ****     }
1000:Drivers/STM32F7xx_HAL_Driver/Src/stm32f7xx_hal_tim.c **** 
1001:Drivers/STM32F7xx_HAL_Driver/Src/stm32f7xx_hal_tim.c ****     case TIM_CHANNEL_3:
1002:Drivers/STM32F7xx_HAL_Driver/Src/stm32f7xx_hal_tim.c ****     {
1003:Drivers/STM32F7xx_HAL_Driver/Src/stm32f7xx_hal_tim.c ****       /* Disable the TIM Capture/Compare 3 interrupt */
1004:Drivers/STM32F7xx_HAL_Driver/Src/stm32f7xx_hal_tim.c ****       __HAL_TIM_DISABLE_IT(htim, TIM_IT_CC3);
1005:Drivers/STM32F7xx_HAL_Driver/Src/stm32f7xx_hal_tim.c ****       break;
1006:Drivers/STM32F7xx_HAL_Driver/Src/stm32f7xx_hal_tim.c ****     }
1007:Drivers/STM32F7xx_HAL_Driver/Src/stm32f7xx_hal_tim.c **** 
1008:Drivers/STM32F7xx_HAL_Driver/Src/stm32f7xx_hal_tim.c ****     case TIM_CHANNEL_4:
1009:Drivers/STM32F7xx_HAL_Driver/Src/stm32f7xx_hal_tim.c ****     {
1010:Drivers/STM32F7xx_HAL_Driver/Src/stm32f7xx_hal_tim.c ****       /* Disable the TIM Capture/Compare 4 interrupt */
1011:Drivers/STM32F7xx_HAL_Driver/Src/stm32f7xx_hal_tim.c ****       __HAL_TIM_DISABLE_IT(htim, TIM_IT_CC4);
1012:Drivers/STM32F7xx_HAL_Driver/Src/stm32f7xx_hal_tim.c ****       break;
1013:Drivers/STM32F7xx_HAL_Driver/Src/stm32f7xx_hal_tim.c ****     }
1014:Drivers/STM32F7xx_HAL_Driver/Src/stm32f7xx_hal_tim.c **** 
1015:Drivers/STM32F7xx_HAL_Driver/Src/stm32f7xx_hal_tim.c ****     default:
1016:Drivers/STM32F7xx_HAL_Driver/Src/stm32f7xx_hal_tim.c ****       status = HAL_ERROR;
1017:Drivers/STM32F7xx_HAL_Driver/Src/stm32f7xx_hal_tim.c ****       break;
1018:Drivers/STM32F7xx_HAL_Driver/Src/stm32f7xx_hal_tim.c ****   }
1019:Drivers/STM32F7xx_HAL_Driver/Src/stm32f7xx_hal_tim.c **** 
1020:Drivers/STM32F7xx_HAL_Driver/Src/stm32f7xx_hal_tim.c ****   if (status == HAL_OK)
1021:Drivers/STM32F7xx_HAL_Driver/Src/stm32f7xx_hal_tim.c ****   {
1022:Drivers/STM32F7xx_HAL_Driver/Src/stm32f7xx_hal_tim.c ****     /* Disable the Output compare channel */
1023:Drivers/STM32F7xx_HAL_Driver/Src/stm32f7xx_hal_tim.c ****     TIM_CCxChannelCmd(htim->Instance, Channel, TIM_CCx_DISABLE);
1024:Drivers/STM32F7xx_HAL_Driver/Src/stm32f7xx_hal_tim.c **** 
1025:Drivers/STM32F7xx_HAL_Driver/Src/stm32f7xx_hal_tim.c ****     if (IS_TIM_BREAK_INSTANCE(htim->Instance) != RESET)
1026:Drivers/STM32F7xx_HAL_Driver/Src/stm32f7xx_hal_tim.c ****     {
1027:Drivers/STM32F7xx_HAL_Driver/Src/stm32f7xx_hal_tim.c ****       /* Disable the Main Output */
1028:Drivers/STM32F7xx_HAL_Driver/Src/stm32f7xx_hal_tim.c ****       __HAL_TIM_MOE_DISABLE(htim);
1029:Drivers/STM32F7xx_HAL_Driver/Src/stm32f7xx_hal_tim.c ****     }
1030:Drivers/STM32F7xx_HAL_Driver/Src/stm32f7xx_hal_tim.c **** 
1031:Drivers/STM32F7xx_HAL_Driver/Src/stm32f7xx_hal_tim.c ****     /* Disable the Peripheral */
1032:Drivers/STM32F7xx_HAL_Driver/Src/stm32f7xx_hal_tim.c ****     __HAL_TIM_DISABLE(htim);
1033:Drivers/STM32F7xx_HAL_Driver/Src/stm32f7xx_hal_tim.c **** 
1034:Drivers/STM32F7xx_HAL_Driver/Src/stm32f7xx_hal_tim.c ****     /* Set the TIM channel state */
1035:Drivers/STM32F7xx_HAL_Driver/Src/stm32f7xx_hal_tim.c ****     TIM_CHANNEL_STATE_SET(htim, Channel, HAL_TIM_CHANNEL_STATE_READY);
1036:Drivers/STM32F7xx_HAL_Driver/Src/stm32f7xx_hal_tim.c ****   }
ARM GAS  /tmp/ccxnnoCQ.s 			page 21


1037:Drivers/STM32F7xx_HAL_Driver/Src/stm32f7xx_hal_tim.c **** 
1038:Drivers/STM32F7xx_HAL_Driver/Src/stm32f7xx_hal_tim.c ****   /* Return function status */
1039:Drivers/STM32F7xx_HAL_Driver/Src/stm32f7xx_hal_tim.c ****   return status;
1040:Drivers/STM32F7xx_HAL_Driver/Src/stm32f7xx_hal_tim.c **** }
1041:Drivers/STM32F7xx_HAL_Driver/Src/stm32f7xx_hal_tim.c **** 
1042:Drivers/STM32F7xx_HAL_Driver/Src/stm32f7xx_hal_tim.c **** /**
1043:Drivers/STM32F7xx_HAL_Driver/Src/stm32f7xx_hal_tim.c ****   * @brief  Starts the TIM Output Compare signal generation in DMA mode.
1044:Drivers/STM32F7xx_HAL_Driver/Src/stm32f7xx_hal_tim.c ****   * @param  htim TIM Output Compare handle
1045:Drivers/STM32F7xx_HAL_Driver/Src/stm32f7xx_hal_tim.c ****   * @param  Channel TIM Channel to be enabled
1046:Drivers/STM32F7xx_HAL_Driver/Src/stm32f7xx_hal_tim.c ****   *          This parameter can be one of the following values:
1047:Drivers/STM32F7xx_HAL_Driver/Src/stm32f7xx_hal_tim.c ****   *            @arg TIM_CHANNEL_1: TIM Channel 1 selected
1048:Drivers/STM32F7xx_HAL_Driver/Src/stm32f7xx_hal_tim.c ****   *            @arg TIM_CHANNEL_2: TIM Channel 2 selected
1049:Drivers/STM32F7xx_HAL_Driver/Src/stm32f7xx_hal_tim.c ****   *            @arg TIM_CHANNEL_3: TIM Channel 3 selected
1050:Drivers/STM32F7xx_HAL_Driver/Src/stm32f7xx_hal_tim.c ****   *            @arg TIM_CHANNEL_4: TIM Channel 4 selected
1051:Drivers/STM32F7xx_HAL_Driver/Src/stm32f7xx_hal_tim.c ****   * @param  pData The source Buffer address.
1052:Drivers/STM32F7xx_HAL_Driver/Src/stm32f7xx_hal_tim.c ****   * @param  Length The length of data to be transferred from memory to TIM peripheral
1053:Drivers/STM32F7xx_HAL_Driver/Src/stm32f7xx_hal_tim.c ****   * @retval HAL status
1054:Drivers/STM32F7xx_HAL_Driver/Src/stm32f7xx_hal_tim.c ****   */
1055:Drivers/STM32F7xx_HAL_Driver/Src/stm32f7xx_hal_tim.c **** HAL_StatusTypeDef HAL_TIM_OC_Start_DMA(TIM_HandleTypeDef *htim, uint32_t Channel, const uint32_t *p
1056:Drivers/STM32F7xx_HAL_Driver/Src/stm32f7xx_hal_tim.c ****                                        uint16_t Length)
1057:Drivers/STM32F7xx_HAL_Driver/Src/stm32f7xx_hal_tim.c **** {
1058:Drivers/STM32F7xx_HAL_Driver/Src/stm32f7xx_hal_tim.c ****   HAL_StatusTypeDef status = HAL_OK;
1059:Drivers/STM32F7xx_HAL_Driver/Src/stm32f7xx_hal_tim.c ****   uint32_t tmpsmcr;
1060:Drivers/STM32F7xx_HAL_Driver/Src/stm32f7xx_hal_tim.c **** 
1061:Drivers/STM32F7xx_HAL_Driver/Src/stm32f7xx_hal_tim.c ****   /* Check the parameters */
1062:Drivers/STM32F7xx_HAL_Driver/Src/stm32f7xx_hal_tim.c ****   assert_param(IS_TIM_CCX_INSTANCE(htim->Instance, Channel));
1063:Drivers/STM32F7xx_HAL_Driver/Src/stm32f7xx_hal_tim.c **** 
1064:Drivers/STM32F7xx_HAL_Driver/Src/stm32f7xx_hal_tim.c ****   /* Set the TIM channel state */
1065:Drivers/STM32F7xx_HAL_Driver/Src/stm32f7xx_hal_tim.c ****   if (TIM_CHANNEL_STATE_GET(htim, Channel) == HAL_TIM_CHANNEL_STATE_BUSY)
1066:Drivers/STM32F7xx_HAL_Driver/Src/stm32f7xx_hal_tim.c ****   {
1067:Drivers/STM32F7xx_HAL_Driver/Src/stm32f7xx_hal_tim.c ****     return HAL_BUSY;
1068:Drivers/STM32F7xx_HAL_Driver/Src/stm32f7xx_hal_tim.c ****   }
1069:Drivers/STM32F7xx_HAL_Driver/Src/stm32f7xx_hal_tim.c ****   else if (TIM_CHANNEL_STATE_GET(htim, Channel) == HAL_TIM_CHANNEL_STATE_READY)
1070:Drivers/STM32F7xx_HAL_Driver/Src/stm32f7xx_hal_tim.c ****   {
1071:Drivers/STM32F7xx_HAL_Driver/Src/stm32f7xx_hal_tim.c ****     if ((pData == NULL) || (Length == 0U))
1072:Drivers/STM32F7xx_HAL_Driver/Src/stm32f7xx_hal_tim.c ****     {
1073:Drivers/STM32F7xx_HAL_Driver/Src/stm32f7xx_hal_tim.c ****       return HAL_ERROR;
1074:Drivers/STM32F7xx_HAL_Driver/Src/stm32f7xx_hal_tim.c ****     }
1075:Drivers/STM32F7xx_HAL_Driver/Src/stm32f7xx_hal_tim.c ****     else
1076:Drivers/STM32F7xx_HAL_Driver/Src/stm32f7xx_hal_tim.c ****     {
1077:Drivers/STM32F7xx_HAL_Driver/Src/stm32f7xx_hal_tim.c ****       TIM_CHANNEL_STATE_SET(htim, Channel, HAL_TIM_CHANNEL_STATE_BUSY);
1078:Drivers/STM32F7xx_HAL_Driver/Src/stm32f7xx_hal_tim.c ****     }
1079:Drivers/STM32F7xx_HAL_Driver/Src/stm32f7xx_hal_tim.c ****   }
1080:Drivers/STM32F7xx_HAL_Driver/Src/stm32f7xx_hal_tim.c ****   else
1081:Drivers/STM32F7xx_HAL_Driver/Src/stm32f7xx_hal_tim.c ****   {
1082:Drivers/STM32F7xx_HAL_Driver/Src/stm32f7xx_hal_tim.c ****     return HAL_ERROR;
1083:Drivers/STM32F7xx_HAL_Driver/Src/stm32f7xx_hal_tim.c ****   }
1084:Drivers/STM32F7xx_HAL_Driver/Src/stm32f7xx_hal_tim.c **** 
1085:Drivers/STM32F7xx_HAL_Driver/Src/stm32f7xx_hal_tim.c ****   switch (Channel)
1086:Drivers/STM32F7xx_HAL_Driver/Src/stm32f7xx_hal_tim.c ****   {
1087:Drivers/STM32F7xx_HAL_Driver/Src/stm32f7xx_hal_tim.c ****     case TIM_CHANNEL_1:
1088:Drivers/STM32F7xx_HAL_Driver/Src/stm32f7xx_hal_tim.c ****     {
1089:Drivers/STM32F7xx_HAL_Driver/Src/stm32f7xx_hal_tim.c ****       /* Set the DMA compare callbacks */
1090:Drivers/STM32F7xx_HAL_Driver/Src/stm32f7xx_hal_tim.c ****       htim->hdma[TIM_DMA_ID_CC1]->XferCpltCallback = TIM_DMADelayPulseCplt;
1091:Drivers/STM32F7xx_HAL_Driver/Src/stm32f7xx_hal_tim.c ****       htim->hdma[TIM_DMA_ID_CC1]->XferHalfCpltCallback = TIM_DMADelayPulseHalfCplt;
1092:Drivers/STM32F7xx_HAL_Driver/Src/stm32f7xx_hal_tim.c **** 
1093:Drivers/STM32F7xx_HAL_Driver/Src/stm32f7xx_hal_tim.c ****       /* Set the DMA error callback */
ARM GAS  /tmp/ccxnnoCQ.s 			page 22


1094:Drivers/STM32F7xx_HAL_Driver/Src/stm32f7xx_hal_tim.c ****       htim->hdma[TIM_DMA_ID_CC1]->XferErrorCallback = TIM_DMAError ;
1095:Drivers/STM32F7xx_HAL_Driver/Src/stm32f7xx_hal_tim.c **** 
1096:Drivers/STM32F7xx_HAL_Driver/Src/stm32f7xx_hal_tim.c ****       /* Enable the DMA stream */
1097:Drivers/STM32F7xx_HAL_Driver/Src/stm32f7xx_hal_tim.c ****       if (HAL_DMA_Start_IT(htim->hdma[TIM_DMA_ID_CC1], (uint32_t)pData, (uint32_t)&htim->Instance->
1098:Drivers/STM32F7xx_HAL_Driver/Src/stm32f7xx_hal_tim.c ****                            Length) != HAL_OK)
1099:Drivers/STM32F7xx_HAL_Driver/Src/stm32f7xx_hal_tim.c ****       {
1100:Drivers/STM32F7xx_HAL_Driver/Src/stm32f7xx_hal_tim.c ****         /* Return error status */
1101:Drivers/STM32F7xx_HAL_Driver/Src/stm32f7xx_hal_tim.c ****         return HAL_ERROR;
1102:Drivers/STM32F7xx_HAL_Driver/Src/stm32f7xx_hal_tim.c ****       }
1103:Drivers/STM32F7xx_HAL_Driver/Src/stm32f7xx_hal_tim.c **** 
1104:Drivers/STM32F7xx_HAL_Driver/Src/stm32f7xx_hal_tim.c ****       /* Enable the TIM Capture/Compare 1 DMA request */
1105:Drivers/STM32F7xx_HAL_Driver/Src/stm32f7xx_hal_tim.c ****       __HAL_TIM_ENABLE_DMA(htim, TIM_DMA_CC1);
1106:Drivers/STM32F7xx_HAL_Driver/Src/stm32f7xx_hal_tim.c ****       break;
1107:Drivers/STM32F7xx_HAL_Driver/Src/stm32f7xx_hal_tim.c ****     }
1108:Drivers/STM32F7xx_HAL_Driver/Src/stm32f7xx_hal_tim.c **** 
1109:Drivers/STM32F7xx_HAL_Driver/Src/stm32f7xx_hal_tim.c ****     case TIM_CHANNEL_2:
1110:Drivers/STM32F7xx_HAL_Driver/Src/stm32f7xx_hal_tim.c ****     {
1111:Drivers/STM32F7xx_HAL_Driver/Src/stm32f7xx_hal_tim.c ****       /* Set the DMA compare callbacks */
1112:Drivers/STM32F7xx_HAL_Driver/Src/stm32f7xx_hal_tim.c ****       htim->hdma[TIM_DMA_ID_CC2]->XferCpltCallback = TIM_DMADelayPulseCplt;
1113:Drivers/STM32F7xx_HAL_Driver/Src/stm32f7xx_hal_tim.c ****       htim->hdma[TIM_DMA_ID_CC2]->XferHalfCpltCallback = TIM_DMADelayPulseHalfCplt;
1114:Drivers/STM32F7xx_HAL_Driver/Src/stm32f7xx_hal_tim.c **** 
1115:Drivers/STM32F7xx_HAL_Driver/Src/stm32f7xx_hal_tim.c ****       /* Set the DMA error callback */
1116:Drivers/STM32F7xx_HAL_Driver/Src/stm32f7xx_hal_tim.c ****       htim->hdma[TIM_DMA_ID_CC2]->XferErrorCallback = TIM_DMAError ;
1117:Drivers/STM32F7xx_HAL_Driver/Src/stm32f7xx_hal_tim.c **** 
1118:Drivers/STM32F7xx_HAL_Driver/Src/stm32f7xx_hal_tim.c ****       /* Enable the DMA stream */
1119:Drivers/STM32F7xx_HAL_Driver/Src/stm32f7xx_hal_tim.c ****       if (HAL_DMA_Start_IT(htim->hdma[TIM_DMA_ID_CC2], (uint32_t)pData, (uint32_t)&htim->Instance->
1120:Drivers/STM32F7xx_HAL_Driver/Src/stm32f7xx_hal_tim.c ****                            Length) != HAL_OK)
1121:Drivers/STM32F7xx_HAL_Driver/Src/stm32f7xx_hal_tim.c ****       {
1122:Drivers/STM32F7xx_HAL_Driver/Src/stm32f7xx_hal_tim.c ****         /* Return error status */
1123:Drivers/STM32F7xx_HAL_Driver/Src/stm32f7xx_hal_tim.c ****         return HAL_ERROR;
1124:Drivers/STM32F7xx_HAL_Driver/Src/stm32f7xx_hal_tim.c ****       }
1125:Drivers/STM32F7xx_HAL_Driver/Src/stm32f7xx_hal_tim.c **** 
1126:Drivers/STM32F7xx_HAL_Driver/Src/stm32f7xx_hal_tim.c ****       /* Enable the TIM Capture/Compare 2 DMA request */
1127:Drivers/STM32F7xx_HAL_Driver/Src/stm32f7xx_hal_tim.c ****       __HAL_TIM_ENABLE_DMA(htim, TIM_DMA_CC2);
1128:Drivers/STM32F7xx_HAL_Driver/Src/stm32f7xx_hal_tim.c ****       break;
1129:Drivers/STM32F7xx_HAL_Driver/Src/stm32f7xx_hal_tim.c ****     }
1130:Drivers/STM32F7xx_HAL_Driver/Src/stm32f7xx_hal_tim.c **** 
1131:Drivers/STM32F7xx_HAL_Driver/Src/stm32f7xx_hal_tim.c ****     case TIM_CHANNEL_3:
1132:Drivers/STM32F7xx_HAL_Driver/Src/stm32f7xx_hal_tim.c ****     {
1133:Drivers/STM32F7xx_HAL_Driver/Src/stm32f7xx_hal_tim.c ****       /* Set the DMA compare callbacks */
1134:Drivers/STM32F7xx_HAL_Driver/Src/stm32f7xx_hal_tim.c ****       htim->hdma[TIM_DMA_ID_CC3]->XferCpltCallback = TIM_DMADelayPulseCplt;
1135:Drivers/STM32F7xx_HAL_Driver/Src/stm32f7xx_hal_tim.c ****       htim->hdma[TIM_DMA_ID_CC3]->XferHalfCpltCallback = TIM_DMADelayPulseHalfCplt;
1136:Drivers/STM32F7xx_HAL_Driver/Src/stm32f7xx_hal_tim.c **** 
1137:Drivers/STM32F7xx_HAL_Driver/Src/stm32f7xx_hal_tim.c ****       /* Set the DMA error callback */
1138:Drivers/STM32F7xx_HAL_Driver/Src/stm32f7xx_hal_tim.c ****       htim->hdma[TIM_DMA_ID_CC3]->XferErrorCallback = TIM_DMAError ;
1139:Drivers/STM32F7xx_HAL_Driver/Src/stm32f7xx_hal_tim.c **** 
1140:Drivers/STM32F7xx_HAL_Driver/Src/stm32f7xx_hal_tim.c ****       /* Enable the DMA stream */
1141:Drivers/STM32F7xx_HAL_Driver/Src/stm32f7xx_hal_tim.c ****       if (HAL_DMA_Start_IT(htim->hdma[TIM_DMA_ID_CC3], (uint32_t)pData, (uint32_t)&htim->Instance->
1142:Drivers/STM32F7xx_HAL_Driver/Src/stm32f7xx_hal_tim.c ****                            Length) != HAL_OK)
1143:Drivers/STM32F7xx_HAL_Driver/Src/stm32f7xx_hal_tim.c ****       {
1144:Drivers/STM32F7xx_HAL_Driver/Src/stm32f7xx_hal_tim.c ****         /* Return error status */
1145:Drivers/STM32F7xx_HAL_Driver/Src/stm32f7xx_hal_tim.c ****         return HAL_ERROR;
1146:Drivers/STM32F7xx_HAL_Driver/Src/stm32f7xx_hal_tim.c ****       }
1147:Drivers/STM32F7xx_HAL_Driver/Src/stm32f7xx_hal_tim.c ****       /* Enable the TIM Capture/Compare 3 DMA request */
1148:Drivers/STM32F7xx_HAL_Driver/Src/stm32f7xx_hal_tim.c ****       __HAL_TIM_ENABLE_DMA(htim, TIM_DMA_CC3);
1149:Drivers/STM32F7xx_HAL_Driver/Src/stm32f7xx_hal_tim.c ****       break;
1150:Drivers/STM32F7xx_HAL_Driver/Src/stm32f7xx_hal_tim.c ****     }
ARM GAS  /tmp/ccxnnoCQ.s 			page 23


1151:Drivers/STM32F7xx_HAL_Driver/Src/stm32f7xx_hal_tim.c **** 
1152:Drivers/STM32F7xx_HAL_Driver/Src/stm32f7xx_hal_tim.c ****     case TIM_CHANNEL_4:
1153:Drivers/STM32F7xx_HAL_Driver/Src/stm32f7xx_hal_tim.c ****     {
1154:Drivers/STM32F7xx_HAL_Driver/Src/stm32f7xx_hal_tim.c ****       /* Set the DMA compare callbacks */
1155:Drivers/STM32F7xx_HAL_Driver/Src/stm32f7xx_hal_tim.c ****       htim->hdma[TIM_DMA_ID_CC4]->XferCpltCallback = TIM_DMADelayPulseCplt;
1156:Drivers/STM32F7xx_HAL_Driver/Src/stm32f7xx_hal_tim.c ****       htim->hdma[TIM_DMA_ID_CC4]->XferHalfCpltCallback = TIM_DMADelayPulseHalfCplt;
1157:Drivers/STM32F7xx_HAL_Driver/Src/stm32f7xx_hal_tim.c **** 
1158:Drivers/STM32F7xx_HAL_Driver/Src/stm32f7xx_hal_tim.c ****       /* Set the DMA error callback */
1159:Drivers/STM32F7xx_HAL_Driver/Src/stm32f7xx_hal_tim.c ****       htim->hdma[TIM_DMA_ID_CC4]->XferErrorCallback = TIM_DMAError ;
1160:Drivers/STM32F7xx_HAL_Driver/Src/stm32f7xx_hal_tim.c **** 
1161:Drivers/STM32F7xx_HAL_Driver/Src/stm32f7xx_hal_tim.c ****       /* Enable the DMA stream */
1162:Drivers/STM32F7xx_HAL_Driver/Src/stm32f7xx_hal_tim.c ****       if (HAL_DMA_Start_IT(htim->hdma[TIM_DMA_ID_CC4], (uint32_t)pData, (uint32_t)&htim->Instance->
1163:Drivers/STM32F7xx_HAL_Driver/Src/stm32f7xx_hal_tim.c ****                            Length) != HAL_OK)
1164:Drivers/STM32F7xx_HAL_Driver/Src/stm32f7xx_hal_tim.c ****       {
1165:Drivers/STM32F7xx_HAL_Driver/Src/stm32f7xx_hal_tim.c ****         /* Return error status */
1166:Drivers/STM32F7xx_HAL_Driver/Src/stm32f7xx_hal_tim.c ****         return HAL_ERROR;
1167:Drivers/STM32F7xx_HAL_Driver/Src/stm32f7xx_hal_tim.c ****       }
1168:Drivers/STM32F7xx_HAL_Driver/Src/stm32f7xx_hal_tim.c ****       /* Enable the TIM Capture/Compare 4 DMA request */
1169:Drivers/STM32F7xx_HAL_Driver/Src/stm32f7xx_hal_tim.c ****       __HAL_TIM_ENABLE_DMA(htim, TIM_DMA_CC4);
1170:Drivers/STM32F7xx_HAL_Driver/Src/stm32f7xx_hal_tim.c ****       break;
1171:Drivers/STM32F7xx_HAL_Driver/Src/stm32f7xx_hal_tim.c ****     }
1172:Drivers/STM32F7xx_HAL_Driver/Src/stm32f7xx_hal_tim.c **** 
1173:Drivers/STM32F7xx_HAL_Driver/Src/stm32f7xx_hal_tim.c ****     default:
1174:Drivers/STM32F7xx_HAL_Driver/Src/stm32f7xx_hal_tim.c ****       status = HAL_ERROR;
1175:Drivers/STM32F7xx_HAL_Driver/Src/stm32f7xx_hal_tim.c ****       break;
1176:Drivers/STM32F7xx_HAL_Driver/Src/stm32f7xx_hal_tim.c ****   }
1177:Drivers/STM32F7xx_HAL_Driver/Src/stm32f7xx_hal_tim.c **** 
1178:Drivers/STM32F7xx_HAL_Driver/Src/stm32f7xx_hal_tim.c ****   if (status == HAL_OK)
1179:Drivers/STM32F7xx_HAL_Driver/Src/stm32f7xx_hal_tim.c ****   {
1180:Drivers/STM32F7xx_HAL_Driver/Src/stm32f7xx_hal_tim.c ****     /* Enable the Output compare channel */
1181:Drivers/STM32F7xx_HAL_Driver/Src/stm32f7xx_hal_tim.c ****     TIM_CCxChannelCmd(htim->Instance, Channel, TIM_CCx_ENABLE);
1182:Drivers/STM32F7xx_HAL_Driver/Src/stm32f7xx_hal_tim.c **** 
1183:Drivers/STM32F7xx_HAL_Driver/Src/stm32f7xx_hal_tim.c ****     if (IS_TIM_BREAK_INSTANCE(htim->Instance) != RESET)
1184:Drivers/STM32F7xx_HAL_Driver/Src/stm32f7xx_hal_tim.c ****     {
1185:Drivers/STM32F7xx_HAL_Driver/Src/stm32f7xx_hal_tim.c ****       /* Enable the main output */
1186:Drivers/STM32F7xx_HAL_Driver/Src/stm32f7xx_hal_tim.c ****       __HAL_TIM_MOE_ENABLE(htim);
1187:Drivers/STM32F7xx_HAL_Driver/Src/stm32f7xx_hal_tim.c ****     }
1188:Drivers/STM32F7xx_HAL_Driver/Src/stm32f7xx_hal_tim.c **** 
1189:Drivers/STM32F7xx_HAL_Driver/Src/stm32f7xx_hal_tim.c ****     /* Enable the Peripheral, except in trigger mode where enable is automatically done with trigge
1190:Drivers/STM32F7xx_HAL_Driver/Src/stm32f7xx_hal_tim.c ****     if (IS_TIM_SLAVE_INSTANCE(htim->Instance))
1191:Drivers/STM32F7xx_HAL_Driver/Src/stm32f7xx_hal_tim.c ****     {
1192:Drivers/STM32F7xx_HAL_Driver/Src/stm32f7xx_hal_tim.c ****       tmpsmcr = htim->Instance->SMCR & TIM_SMCR_SMS;
1193:Drivers/STM32F7xx_HAL_Driver/Src/stm32f7xx_hal_tim.c ****       if (!IS_TIM_SLAVEMODE_TRIGGER_ENABLED(tmpsmcr))
1194:Drivers/STM32F7xx_HAL_Driver/Src/stm32f7xx_hal_tim.c ****       {
1195:Drivers/STM32F7xx_HAL_Driver/Src/stm32f7xx_hal_tim.c ****         __HAL_TIM_ENABLE(htim);
1196:Drivers/STM32F7xx_HAL_Driver/Src/stm32f7xx_hal_tim.c ****       }
1197:Drivers/STM32F7xx_HAL_Driver/Src/stm32f7xx_hal_tim.c ****     }
1198:Drivers/STM32F7xx_HAL_Driver/Src/stm32f7xx_hal_tim.c ****     else
1199:Drivers/STM32F7xx_HAL_Driver/Src/stm32f7xx_hal_tim.c ****     {
1200:Drivers/STM32F7xx_HAL_Driver/Src/stm32f7xx_hal_tim.c ****       __HAL_TIM_ENABLE(htim);
1201:Drivers/STM32F7xx_HAL_Driver/Src/stm32f7xx_hal_tim.c ****     }
1202:Drivers/STM32F7xx_HAL_Driver/Src/stm32f7xx_hal_tim.c ****   }
1203:Drivers/STM32F7xx_HAL_Driver/Src/stm32f7xx_hal_tim.c **** 
1204:Drivers/STM32F7xx_HAL_Driver/Src/stm32f7xx_hal_tim.c ****   /* Return function status */
1205:Drivers/STM32F7xx_HAL_Driver/Src/stm32f7xx_hal_tim.c ****   return status;
1206:Drivers/STM32F7xx_HAL_Driver/Src/stm32f7xx_hal_tim.c **** }
1207:Drivers/STM32F7xx_HAL_Driver/Src/stm32f7xx_hal_tim.c **** 
ARM GAS  /tmp/ccxnnoCQ.s 			page 24


1208:Drivers/STM32F7xx_HAL_Driver/Src/stm32f7xx_hal_tim.c **** /**
1209:Drivers/STM32F7xx_HAL_Driver/Src/stm32f7xx_hal_tim.c ****   * @brief  Stops the TIM Output Compare signal generation in DMA mode.
1210:Drivers/STM32F7xx_HAL_Driver/Src/stm32f7xx_hal_tim.c ****   * @param  htim TIM Output Compare handle
1211:Drivers/STM32F7xx_HAL_Driver/Src/stm32f7xx_hal_tim.c ****   * @param  Channel TIM Channel to be disabled
1212:Drivers/STM32F7xx_HAL_Driver/Src/stm32f7xx_hal_tim.c ****   *          This parameter can be one of the following values:
1213:Drivers/STM32F7xx_HAL_Driver/Src/stm32f7xx_hal_tim.c ****   *            @arg TIM_CHANNEL_1: TIM Channel 1 selected
1214:Drivers/STM32F7xx_HAL_Driver/Src/stm32f7xx_hal_tim.c ****   *            @arg TIM_CHANNEL_2: TIM Channel 2 selected
1215:Drivers/STM32F7xx_HAL_Driver/Src/stm32f7xx_hal_tim.c ****   *            @arg TIM_CHANNEL_3: TIM Channel 3 selected
1216:Drivers/STM32F7xx_HAL_Driver/Src/stm32f7xx_hal_tim.c ****   *            @arg TIM_CHANNEL_4: TIM Channel 4 selected
1217:Drivers/STM32F7xx_HAL_Driver/Src/stm32f7xx_hal_tim.c ****   * @retval HAL status
1218:Drivers/STM32F7xx_HAL_Driver/Src/stm32f7xx_hal_tim.c ****   */
1219:Drivers/STM32F7xx_HAL_Driver/Src/stm32f7xx_hal_tim.c **** HAL_StatusTypeDef HAL_TIM_OC_Stop_DMA(TIM_HandleTypeDef *htim, uint32_t Channel)
1220:Drivers/STM32F7xx_HAL_Driver/Src/stm32f7xx_hal_tim.c **** {
1221:Drivers/STM32F7xx_HAL_Driver/Src/stm32f7xx_hal_tim.c ****   HAL_StatusTypeDef status = HAL_OK;
1222:Drivers/STM32F7xx_HAL_Driver/Src/stm32f7xx_hal_tim.c **** 
1223:Drivers/STM32F7xx_HAL_Driver/Src/stm32f7xx_hal_tim.c ****   /* Check the parameters */
1224:Drivers/STM32F7xx_HAL_Driver/Src/stm32f7xx_hal_tim.c ****   assert_param(IS_TIM_CCX_INSTANCE(htim->Instance, Channel));
1225:Drivers/STM32F7xx_HAL_Driver/Src/stm32f7xx_hal_tim.c **** 
1226:Drivers/STM32F7xx_HAL_Driver/Src/stm32f7xx_hal_tim.c ****   switch (Channel)
1227:Drivers/STM32F7xx_HAL_Driver/Src/stm32f7xx_hal_tim.c ****   {
1228:Drivers/STM32F7xx_HAL_Driver/Src/stm32f7xx_hal_tim.c ****     case TIM_CHANNEL_1:
1229:Drivers/STM32F7xx_HAL_Driver/Src/stm32f7xx_hal_tim.c ****     {
1230:Drivers/STM32F7xx_HAL_Driver/Src/stm32f7xx_hal_tim.c ****       /* Disable the TIM Capture/Compare 1 DMA request */
1231:Drivers/STM32F7xx_HAL_Driver/Src/stm32f7xx_hal_tim.c ****       __HAL_TIM_DISABLE_DMA(htim, TIM_DMA_CC1);
1232:Drivers/STM32F7xx_HAL_Driver/Src/stm32f7xx_hal_tim.c ****       (void)HAL_DMA_Abort_IT(htim->hdma[TIM_DMA_ID_CC1]);
1233:Drivers/STM32F7xx_HAL_Driver/Src/stm32f7xx_hal_tim.c ****       break;
1234:Drivers/STM32F7xx_HAL_Driver/Src/stm32f7xx_hal_tim.c ****     }
1235:Drivers/STM32F7xx_HAL_Driver/Src/stm32f7xx_hal_tim.c **** 
1236:Drivers/STM32F7xx_HAL_Driver/Src/stm32f7xx_hal_tim.c ****     case TIM_CHANNEL_2:
1237:Drivers/STM32F7xx_HAL_Driver/Src/stm32f7xx_hal_tim.c ****     {
1238:Drivers/STM32F7xx_HAL_Driver/Src/stm32f7xx_hal_tim.c ****       /* Disable the TIM Capture/Compare 2 DMA request */
1239:Drivers/STM32F7xx_HAL_Driver/Src/stm32f7xx_hal_tim.c ****       __HAL_TIM_DISABLE_DMA(htim, TIM_DMA_CC2);
1240:Drivers/STM32F7xx_HAL_Driver/Src/stm32f7xx_hal_tim.c ****       (void)HAL_DMA_Abort_IT(htim->hdma[TIM_DMA_ID_CC2]);
1241:Drivers/STM32F7xx_HAL_Driver/Src/stm32f7xx_hal_tim.c ****       break;
1242:Drivers/STM32F7xx_HAL_Driver/Src/stm32f7xx_hal_tim.c ****     }
1243:Drivers/STM32F7xx_HAL_Driver/Src/stm32f7xx_hal_tim.c **** 
1244:Drivers/STM32F7xx_HAL_Driver/Src/stm32f7xx_hal_tim.c ****     case TIM_CHANNEL_3:
1245:Drivers/STM32F7xx_HAL_Driver/Src/stm32f7xx_hal_tim.c ****     {
1246:Drivers/STM32F7xx_HAL_Driver/Src/stm32f7xx_hal_tim.c ****       /* Disable the TIM Capture/Compare 3 DMA request */
1247:Drivers/STM32F7xx_HAL_Driver/Src/stm32f7xx_hal_tim.c ****       __HAL_TIM_DISABLE_DMA(htim, TIM_DMA_CC3);
1248:Drivers/STM32F7xx_HAL_Driver/Src/stm32f7xx_hal_tim.c ****       (void)HAL_DMA_Abort_IT(htim->hdma[TIM_DMA_ID_CC3]);
1249:Drivers/STM32F7xx_HAL_Driver/Src/stm32f7xx_hal_tim.c ****       break;
1250:Drivers/STM32F7xx_HAL_Driver/Src/stm32f7xx_hal_tim.c ****     }
1251:Drivers/STM32F7xx_HAL_Driver/Src/stm32f7xx_hal_tim.c **** 
1252:Drivers/STM32F7xx_HAL_Driver/Src/stm32f7xx_hal_tim.c ****     case TIM_CHANNEL_4:
1253:Drivers/STM32F7xx_HAL_Driver/Src/stm32f7xx_hal_tim.c ****     {
1254:Drivers/STM32F7xx_HAL_Driver/Src/stm32f7xx_hal_tim.c ****       /* Disable the TIM Capture/Compare 4 interrupt */
1255:Drivers/STM32F7xx_HAL_Driver/Src/stm32f7xx_hal_tim.c ****       __HAL_TIM_DISABLE_DMA(htim, TIM_DMA_CC4);
1256:Drivers/STM32F7xx_HAL_Driver/Src/stm32f7xx_hal_tim.c ****       (void)HAL_DMA_Abort_IT(htim->hdma[TIM_DMA_ID_CC4]);
1257:Drivers/STM32F7xx_HAL_Driver/Src/stm32f7xx_hal_tim.c ****       break;
1258:Drivers/STM32F7xx_HAL_Driver/Src/stm32f7xx_hal_tim.c ****     }
1259:Drivers/STM32F7xx_HAL_Driver/Src/stm32f7xx_hal_tim.c **** 
1260:Drivers/STM32F7xx_HAL_Driver/Src/stm32f7xx_hal_tim.c ****     default:
1261:Drivers/STM32F7xx_HAL_Driver/Src/stm32f7xx_hal_tim.c ****       status = HAL_ERROR;
1262:Drivers/STM32F7xx_HAL_Driver/Src/stm32f7xx_hal_tim.c ****       break;
1263:Drivers/STM32F7xx_HAL_Driver/Src/stm32f7xx_hal_tim.c ****   }
1264:Drivers/STM32F7xx_HAL_Driver/Src/stm32f7xx_hal_tim.c **** 
ARM GAS  /tmp/ccxnnoCQ.s 			page 25


1265:Drivers/STM32F7xx_HAL_Driver/Src/stm32f7xx_hal_tim.c ****   if (status == HAL_OK)
1266:Drivers/STM32F7xx_HAL_Driver/Src/stm32f7xx_hal_tim.c ****   {
1267:Drivers/STM32F7xx_HAL_Driver/Src/stm32f7xx_hal_tim.c ****     /* Disable the Output compare channel */
1268:Drivers/STM32F7xx_HAL_Driver/Src/stm32f7xx_hal_tim.c ****     TIM_CCxChannelCmd(htim->Instance, Channel, TIM_CCx_DISABLE);
1269:Drivers/STM32F7xx_HAL_Driver/Src/stm32f7xx_hal_tim.c **** 
1270:Drivers/STM32F7xx_HAL_Driver/Src/stm32f7xx_hal_tim.c ****     if (IS_TIM_BREAK_INSTANCE(htim->Instance) != RESET)
1271:Drivers/STM32F7xx_HAL_Driver/Src/stm32f7xx_hal_tim.c ****     {
1272:Drivers/STM32F7xx_HAL_Driver/Src/stm32f7xx_hal_tim.c ****       /* Disable the Main Output */
1273:Drivers/STM32F7xx_HAL_Driver/Src/stm32f7xx_hal_tim.c ****       __HAL_TIM_MOE_DISABLE(htim);
1274:Drivers/STM32F7xx_HAL_Driver/Src/stm32f7xx_hal_tim.c ****     }
1275:Drivers/STM32F7xx_HAL_Driver/Src/stm32f7xx_hal_tim.c **** 
1276:Drivers/STM32F7xx_HAL_Driver/Src/stm32f7xx_hal_tim.c ****     /* Disable the Peripheral */
1277:Drivers/STM32F7xx_HAL_Driver/Src/stm32f7xx_hal_tim.c ****     __HAL_TIM_DISABLE(htim);
1278:Drivers/STM32F7xx_HAL_Driver/Src/stm32f7xx_hal_tim.c **** 
1279:Drivers/STM32F7xx_HAL_Driver/Src/stm32f7xx_hal_tim.c ****     /* Set the TIM channel state */
1280:Drivers/STM32F7xx_HAL_Driver/Src/stm32f7xx_hal_tim.c ****     TIM_CHANNEL_STATE_SET(htim, Channel, HAL_TIM_CHANNEL_STATE_READY);
1281:Drivers/STM32F7xx_HAL_Driver/Src/stm32f7xx_hal_tim.c ****   }
1282:Drivers/STM32F7xx_HAL_Driver/Src/stm32f7xx_hal_tim.c **** 
1283:Drivers/STM32F7xx_HAL_Driver/Src/stm32f7xx_hal_tim.c ****   /* Return function status */
1284:Drivers/STM32F7xx_HAL_Driver/Src/stm32f7xx_hal_tim.c ****   return status;
1285:Drivers/STM32F7xx_HAL_Driver/Src/stm32f7xx_hal_tim.c **** }
1286:Drivers/STM32F7xx_HAL_Driver/Src/stm32f7xx_hal_tim.c **** 
1287:Drivers/STM32F7xx_HAL_Driver/Src/stm32f7xx_hal_tim.c **** /**
1288:Drivers/STM32F7xx_HAL_Driver/Src/stm32f7xx_hal_tim.c ****   * @}
1289:Drivers/STM32F7xx_HAL_Driver/Src/stm32f7xx_hal_tim.c ****   */
1290:Drivers/STM32F7xx_HAL_Driver/Src/stm32f7xx_hal_tim.c **** 
1291:Drivers/STM32F7xx_HAL_Driver/Src/stm32f7xx_hal_tim.c **** /** @defgroup TIM_Exported_Functions_Group3 TIM PWM functions
1292:Drivers/STM32F7xx_HAL_Driver/Src/stm32f7xx_hal_tim.c ****   *  @brief    TIM PWM functions
1293:Drivers/STM32F7xx_HAL_Driver/Src/stm32f7xx_hal_tim.c ****   *
1294:Drivers/STM32F7xx_HAL_Driver/Src/stm32f7xx_hal_tim.c **** @verbatim
1295:Drivers/STM32F7xx_HAL_Driver/Src/stm32f7xx_hal_tim.c ****   ==============================================================================
1296:Drivers/STM32F7xx_HAL_Driver/Src/stm32f7xx_hal_tim.c ****                           ##### TIM PWM functions #####
1297:Drivers/STM32F7xx_HAL_Driver/Src/stm32f7xx_hal_tim.c ****   ==============================================================================
1298:Drivers/STM32F7xx_HAL_Driver/Src/stm32f7xx_hal_tim.c ****   [..]
1299:Drivers/STM32F7xx_HAL_Driver/Src/stm32f7xx_hal_tim.c ****     This section provides functions allowing to:
1300:Drivers/STM32F7xx_HAL_Driver/Src/stm32f7xx_hal_tim.c ****     (+) Initialize and configure the TIM PWM.
1301:Drivers/STM32F7xx_HAL_Driver/Src/stm32f7xx_hal_tim.c ****     (+) De-initialize the TIM PWM.
1302:Drivers/STM32F7xx_HAL_Driver/Src/stm32f7xx_hal_tim.c ****     (+) Start the TIM PWM.
1303:Drivers/STM32F7xx_HAL_Driver/Src/stm32f7xx_hal_tim.c ****     (+) Stop the TIM PWM.
1304:Drivers/STM32F7xx_HAL_Driver/Src/stm32f7xx_hal_tim.c ****     (+) Start the TIM PWM and enable interrupt.
1305:Drivers/STM32F7xx_HAL_Driver/Src/stm32f7xx_hal_tim.c ****     (+) Stop the TIM PWM and disable interrupt.
1306:Drivers/STM32F7xx_HAL_Driver/Src/stm32f7xx_hal_tim.c ****     (+) Start the TIM PWM and enable DMA transfer.
1307:Drivers/STM32F7xx_HAL_Driver/Src/stm32f7xx_hal_tim.c ****     (+) Stop the TIM PWM and disable DMA transfer.
1308:Drivers/STM32F7xx_HAL_Driver/Src/stm32f7xx_hal_tim.c **** 
1309:Drivers/STM32F7xx_HAL_Driver/Src/stm32f7xx_hal_tim.c **** @endverbatim
1310:Drivers/STM32F7xx_HAL_Driver/Src/stm32f7xx_hal_tim.c ****   * @{
1311:Drivers/STM32F7xx_HAL_Driver/Src/stm32f7xx_hal_tim.c ****   */
1312:Drivers/STM32F7xx_HAL_Driver/Src/stm32f7xx_hal_tim.c **** /**
1313:Drivers/STM32F7xx_HAL_Driver/Src/stm32f7xx_hal_tim.c ****   * @brief  Initializes the TIM PWM Time Base according to the specified
1314:Drivers/STM32F7xx_HAL_Driver/Src/stm32f7xx_hal_tim.c ****   *         parameters in the TIM_HandleTypeDef and initializes the associated handle.
1315:Drivers/STM32F7xx_HAL_Driver/Src/stm32f7xx_hal_tim.c ****   * @note   Switching from Center Aligned counter mode to Edge counter mode (or reverse)
1316:Drivers/STM32F7xx_HAL_Driver/Src/stm32f7xx_hal_tim.c ****   *         requires a timer reset to avoid unexpected direction
1317:Drivers/STM32F7xx_HAL_Driver/Src/stm32f7xx_hal_tim.c ****   *         due to DIR bit readonly in center aligned mode.
1318:Drivers/STM32F7xx_HAL_Driver/Src/stm32f7xx_hal_tim.c ****   *         Ex: call @ref HAL_TIM_PWM_DeInit() before HAL_TIM_PWM_Init()
1319:Drivers/STM32F7xx_HAL_Driver/Src/stm32f7xx_hal_tim.c ****   * @param  htim TIM PWM handle
1320:Drivers/STM32F7xx_HAL_Driver/Src/stm32f7xx_hal_tim.c ****   * @retval HAL status
1321:Drivers/STM32F7xx_HAL_Driver/Src/stm32f7xx_hal_tim.c ****   */
ARM GAS  /tmp/ccxnnoCQ.s 			page 26


1322:Drivers/STM32F7xx_HAL_Driver/Src/stm32f7xx_hal_tim.c **** HAL_StatusTypeDef HAL_TIM_PWM_Init(TIM_HandleTypeDef *htim)
1323:Drivers/STM32F7xx_HAL_Driver/Src/stm32f7xx_hal_tim.c **** {
1324:Drivers/STM32F7xx_HAL_Driver/Src/stm32f7xx_hal_tim.c ****   /* Check the TIM handle allocation */
1325:Drivers/STM32F7xx_HAL_Driver/Src/stm32f7xx_hal_tim.c ****   if (htim == NULL)
1326:Drivers/STM32F7xx_HAL_Driver/Src/stm32f7xx_hal_tim.c ****   {
1327:Drivers/STM32F7xx_HAL_Driver/Src/stm32f7xx_hal_tim.c ****     return HAL_ERROR;
1328:Drivers/STM32F7xx_HAL_Driver/Src/stm32f7xx_hal_tim.c ****   }
1329:Drivers/STM32F7xx_HAL_Driver/Src/stm32f7xx_hal_tim.c **** 
1330:Drivers/STM32F7xx_HAL_Driver/Src/stm32f7xx_hal_tim.c ****   /* Check the parameters */
1331:Drivers/STM32F7xx_HAL_Driver/Src/stm32f7xx_hal_tim.c ****   assert_param(IS_TIM_INSTANCE(htim->Instance));
1332:Drivers/STM32F7xx_HAL_Driver/Src/stm32f7xx_hal_tim.c ****   assert_param(IS_TIM_COUNTER_MODE(htim->Init.CounterMode));
1333:Drivers/STM32F7xx_HAL_Driver/Src/stm32f7xx_hal_tim.c ****   assert_param(IS_TIM_CLOCKDIVISION_DIV(htim->Init.ClockDivision));
1334:Drivers/STM32F7xx_HAL_Driver/Src/stm32f7xx_hal_tim.c ****   assert_param(IS_TIM_PERIOD(htim, htim->Init.Period));
1335:Drivers/STM32F7xx_HAL_Driver/Src/stm32f7xx_hal_tim.c ****   assert_param(IS_TIM_AUTORELOAD_PRELOAD(htim->Init.AutoReloadPreload));
1336:Drivers/STM32F7xx_HAL_Driver/Src/stm32f7xx_hal_tim.c **** 
1337:Drivers/STM32F7xx_HAL_Driver/Src/stm32f7xx_hal_tim.c ****   if (htim->State == HAL_TIM_STATE_RESET)
1338:Drivers/STM32F7xx_HAL_Driver/Src/stm32f7xx_hal_tim.c ****   {
1339:Drivers/STM32F7xx_HAL_Driver/Src/stm32f7xx_hal_tim.c ****     /* Allocate lock resource and initialize it */
1340:Drivers/STM32F7xx_HAL_Driver/Src/stm32f7xx_hal_tim.c ****     htim->Lock = HAL_UNLOCKED;
1341:Drivers/STM32F7xx_HAL_Driver/Src/stm32f7xx_hal_tim.c **** 
1342:Drivers/STM32F7xx_HAL_Driver/Src/stm32f7xx_hal_tim.c **** #if (USE_HAL_TIM_REGISTER_CALLBACKS == 1)
1343:Drivers/STM32F7xx_HAL_Driver/Src/stm32f7xx_hal_tim.c ****     /* Reset interrupt callbacks to legacy weak callbacks */
1344:Drivers/STM32F7xx_HAL_Driver/Src/stm32f7xx_hal_tim.c ****     TIM_ResetCallback(htim);
1345:Drivers/STM32F7xx_HAL_Driver/Src/stm32f7xx_hal_tim.c **** 
1346:Drivers/STM32F7xx_HAL_Driver/Src/stm32f7xx_hal_tim.c ****     if (htim->PWM_MspInitCallback == NULL)
1347:Drivers/STM32F7xx_HAL_Driver/Src/stm32f7xx_hal_tim.c ****     {
1348:Drivers/STM32F7xx_HAL_Driver/Src/stm32f7xx_hal_tim.c ****       htim->PWM_MspInitCallback = HAL_TIM_PWM_MspInit;
1349:Drivers/STM32F7xx_HAL_Driver/Src/stm32f7xx_hal_tim.c ****     }
1350:Drivers/STM32F7xx_HAL_Driver/Src/stm32f7xx_hal_tim.c ****     /* Init the low level hardware : GPIO, CLOCK, NVIC */
1351:Drivers/STM32F7xx_HAL_Driver/Src/stm32f7xx_hal_tim.c ****     htim->PWM_MspInitCallback(htim);
1352:Drivers/STM32F7xx_HAL_Driver/Src/stm32f7xx_hal_tim.c **** #else
1353:Drivers/STM32F7xx_HAL_Driver/Src/stm32f7xx_hal_tim.c ****     /* Init the low level hardware : GPIO, CLOCK, NVIC and DMA */
1354:Drivers/STM32F7xx_HAL_Driver/Src/stm32f7xx_hal_tim.c ****     HAL_TIM_PWM_MspInit(htim);
1355:Drivers/STM32F7xx_HAL_Driver/Src/stm32f7xx_hal_tim.c **** #endif /* USE_HAL_TIM_REGISTER_CALLBACKS */
1356:Drivers/STM32F7xx_HAL_Driver/Src/stm32f7xx_hal_tim.c ****   }
1357:Drivers/STM32F7xx_HAL_Driver/Src/stm32f7xx_hal_tim.c **** 
1358:Drivers/STM32F7xx_HAL_Driver/Src/stm32f7xx_hal_tim.c ****   /* Set the TIM state */
1359:Drivers/STM32F7xx_HAL_Driver/Src/stm32f7xx_hal_tim.c ****   htim->State = HAL_TIM_STATE_BUSY;
1360:Drivers/STM32F7xx_HAL_Driver/Src/stm32f7xx_hal_tim.c **** 
1361:Drivers/STM32F7xx_HAL_Driver/Src/stm32f7xx_hal_tim.c ****   /* Init the base time for the PWM */
1362:Drivers/STM32F7xx_HAL_Driver/Src/stm32f7xx_hal_tim.c ****   TIM_Base_SetConfig(htim->Instance, &htim->Init);
1363:Drivers/STM32F7xx_HAL_Driver/Src/stm32f7xx_hal_tim.c **** 
1364:Drivers/STM32F7xx_HAL_Driver/Src/stm32f7xx_hal_tim.c ****   /* Initialize the DMA burst operation state */
1365:Drivers/STM32F7xx_HAL_Driver/Src/stm32f7xx_hal_tim.c ****   htim->DMABurstState = HAL_DMA_BURST_STATE_READY;
1366:Drivers/STM32F7xx_HAL_Driver/Src/stm32f7xx_hal_tim.c **** 
1367:Drivers/STM32F7xx_HAL_Driver/Src/stm32f7xx_hal_tim.c ****   /* Initialize the TIM channels state */
1368:Drivers/STM32F7xx_HAL_Driver/Src/stm32f7xx_hal_tim.c ****   TIM_CHANNEL_STATE_SET_ALL(htim, HAL_TIM_CHANNEL_STATE_READY);
1369:Drivers/STM32F7xx_HAL_Driver/Src/stm32f7xx_hal_tim.c ****   TIM_CHANNEL_N_STATE_SET_ALL(htim, HAL_TIM_CHANNEL_STATE_READY);
1370:Drivers/STM32F7xx_HAL_Driver/Src/stm32f7xx_hal_tim.c **** 
1371:Drivers/STM32F7xx_HAL_Driver/Src/stm32f7xx_hal_tim.c ****   /* Initialize the TIM state*/
1372:Drivers/STM32F7xx_HAL_Driver/Src/stm32f7xx_hal_tim.c ****   htim->State = HAL_TIM_STATE_READY;
1373:Drivers/STM32F7xx_HAL_Driver/Src/stm32f7xx_hal_tim.c **** 
1374:Drivers/STM32F7xx_HAL_Driver/Src/stm32f7xx_hal_tim.c ****   return HAL_OK;
1375:Drivers/STM32F7xx_HAL_Driver/Src/stm32f7xx_hal_tim.c **** }
1376:Drivers/STM32F7xx_HAL_Driver/Src/stm32f7xx_hal_tim.c **** 
1377:Drivers/STM32F7xx_HAL_Driver/Src/stm32f7xx_hal_tim.c **** /**
1378:Drivers/STM32F7xx_HAL_Driver/Src/stm32f7xx_hal_tim.c ****   * @brief  DeInitializes the TIM peripheral
ARM GAS  /tmp/ccxnnoCQ.s 			page 27


1379:Drivers/STM32F7xx_HAL_Driver/Src/stm32f7xx_hal_tim.c ****   * @param  htim TIM PWM handle
1380:Drivers/STM32F7xx_HAL_Driver/Src/stm32f7xx_hal_tim.c ****   * @retval HAL status
1381:Drivers/STM32F7xx_HAL_Driver/Src/stm32f7xx_hal_tim.c ****   */
1382:Drivers/STM32F7xx_HAL_Driver/Src/stm32f7xx_hal_tim.c **** HAL_StatusTypeDef HAL_TIM_PWM_DeInit(TIM_HandleTypeDef *htim)
1383:Drivers/STM32F7xx_HAL_Driver/Src/stm32f7xx_hal_tim.c **** {
1384:Drivers/STM32F7xx_HAL_Driver/Src/stm32f7xx_hal_tim.c ****   /* Check the parameters */
1385:Drivers/STM32F7xx_HAL_Driver/Src/stm32f7xx_hal_tim.c ****   assert_param(IS_TIM_INSTANCE(htim->Instance));
1386:Drivers/STM32F7xx_HAL_Driver/Src/stm32f7xx_hal_tim.c **** 
1387:Drivers/STM32F7xx_HAL_Driver/Src/stm32f7xx_hal_tim.c ****   htim->State = HAL_TIM_STATE_BUSY;
1388:Drivers/STM32F7xx_HAL_Driver/Src/stm32f7xx_hal_tim.c **** 
1389:Drivers/STM32F7xx_HAL_Driver/Src/stm32f7xx_hal_tim.c ****   /* Disable the TIM Peripheral Clock */
1390:Drivers/STM32F7xx_HAL_Driver/Src/stm32f7xx_hal_tim.c ****   __HAL_TIM_DISABLE(htim);
1391:Drivers/STM32F7xx_HAL_Driver/Src/stm32f7xx_hal_tim.c **** 
1392:Drivers/STM32F7xx_HAL_Driver/Src/stm32f7xx_hal_tim.c **** #if (USE_HAL_TIM_REGISTER_CALLBACKS == 1)
1393:Drivers/STM32F7xx_HAL_Driver/Src/stm32f7xx_hal_tim.c ****   if (htim->PWM_MspDeInitCallback == NULL)
1394:Drivers/STM32F7xx_HAL_Driver/Src/stm32f7xx_hal_tim.c ****   {
1395:Drivers/STM32F7xx_HAL_Driver/Src/stm32f7xx_hal_tim.c ****     htim->PWM_MspDeInitCallback = HAL_TIM_PWM_MspDeInit;
1396:Drivers/STM32F7xx_HAL_Driver/Src/stm32f7xx_hal_tim.c ****   }
1397:Drivers/STM32F7xx_HAL_Driver/Src/stm32f7xx_hal_tim.c ****   /* DeInit the low level hardware */
1398:Drivers/STM32F7xx_HAL_Driver/Src/stm32f7xx_hal_tim.c ****   htim->PWM_MspDeInitCallback(htim);
1399:Drivers/STM32F7xx_HAL_Driver/Src/stm32f7xx_hal_tim.c **** #else
1400:Drivers/STM32F7xx_HAL_Driver/Src/stm32f7xx_hal_tim.c ****   /* DeInit the low level hardware: GPIO, CLOCK, NVIC and DMA */
1401:Drivers/STM32F7xx_HAL_Driver/Src/stm32f7xx_hal_tim.c ****   HAL_TIM_PWM_MspDeInit(htim);
1402:Drivers/STM32F7xx_HAL_Driver/Src/stm32f7xx_hal_tim.c **** #endif /* USE_HAL_TIM_REGISTER_CALLBACKS */
1403:Drivers/STM32F7xx_HAL_Driver/Src/stm32f7xx_hal_tim.c **** 
1404:Drivers/STM32F7xx_HAL_Driver/Src/stm32f7xx_hal_tim.c ****   /* Change the DMA burst operation state */
1405:Drivers/STM32F7xx_HAL_Driver/Src/stm32f7xx_hal_tim.c ****   htim->DMABurstState = HAL_DMA_BURST_STATE_RESET;
1406:Drivers/STM32F7xx_HAL_Driver/Src/stm32f7xx_hal_tim.c **** 
1407:Drivers/STM32F7xx_HAL_Driver/Src/stm32f7xx_hal_tim.c ****   /* Change the TIM channels state */
1408:Drivers/STM32F7xx_HAL_Driver/Src/stm32f7xx_hal_tim.c ****   TIM_CHANNEL_STATE_SET_ALL(htim, HAL_TIM_CHANNEL_STATE_RESET);
1409:Drivers/STM32F7xx_HAL_Driver/Src/stm32f7xx_hal_tim.c ****   TIM_CHANNEL_N_STATE_SET_ALL(htim, HAL_TIM_CHANNEL_STATE_RESET);
1410:Drivers/STM32F7xx_HAL_Driver/Src/stm32f7xx_hal_tim.c **** 
1411:Drivers/STM32F7xx_HAL_Driver/Src/stm32f7xx_hal_tim.c ****   /* Change TIM state */
1412:Drivers/STM32F7xx_HAL_Driver/Src/stm32f7xx_hal_tim.c ****   htim->State = HAL_TIM_STATE_RESET;
1413:Drivers/STM32F7xx_HAL_Driver/Src/stm32f7xx_hal_tim.c **** 
1414:Drivers/STM32F7xx_HAL_Driver/Src/stm32f7xx_hal_tim.c ****   /* Release Lock */
1415:Drivers/STM32F7xx_HAL_Driver/Src/stm32f7xx_hal_tim.c ****   __HAL_UNLOCK(htim);
1416:Drivers/STM32F7xx_HAL_Driver/Src/stm32f7xx_hal_tim.c **** 
1417:Drivers/STM32F7xx_HAL_Driver/Src/stm32f7xx_hal_tim.c ****   return HAL_OK;
1418:Drivers/STM32F7xx_HAL_Driver/Src/stm32f7xx_hal_tim.c **** }
1419:Drivers/STM32F7xx_HAL_Driver/Src/stm32f7xx_hal_tim.c **** 
1420:Drivers/STM32F7xx_HAL_Driver/Src/stm32f7xx_hal_tim.c **** /**
1421:Drivers/STM32F7xx_HAL_Driver/Src/stm32f7xx_hal_tim.c ****   * @brief  Initializes the TIM PWM MSP.
1422:Drivers/STM32F7xx_HAL_Driver/Src/stm32f7xx_hal_tim.c ****   * @param  htim TIM PWM handle
1423:Drivers/STM32F7xx_HAL_Driver/Src/stm32f7xx_hal_tim.c ****   * @retval None
1424:Drivers/STM32F7xx_HAL_Driver/Src/stm32f7xx_hal_tim.c ****   */
1425:Drivers/STM32F7xx_HAL_Driver/Src/stm32f7xx_hal_tim.c **** __weak void HAL_TIM_PWM_MspInit(TIM_HandleTypeDef *htim)
1426:Drivers/STM32F7xx_HAL_Driver/Src/stm32f7xx_hal_tim.c **** {
 114              		.loc 1 1426 1 is_stmt 1 view -0
 115              		.cfi_startproc
 116              		@ args = 0, pretend = 0, frame = 0
 117              		@ frame_needed = 0, uses_anonymous_args = 0
 118              		@ link register save eliminated.
1427:Drivers/STM32F7xx_HAL_Driver/Src/stm32f7xx_hal_tim.c ****   /* Prevent unused argument(s) compilation warning */
1428:Drivers/STM32F7xx_HAL_Driver/Src/stm32f7xx_hal_tim.c ****   UNUSED(htim);
 119              		.loc 1 1428 3 view .LVU13
1429:Drivers/STM32F7xx_HAL_Driver/Src/stm32f7xx_hal_tim.c **** 
ARM GAS  /tmp/ccxnnoCQ.s 			page 28


1430:Drivers/STM32F7xx_HAL_Driver/Src/stm32f7xx_hal_tim.c ****   /* NOTE : This function should not be modified, when the callback is needed,
1431:Drivers/STM32F7xx_HAL_Driver/Src/stm32f7xx_hal_tim.c ****             the HAL_TIM_PWM_MspInit could be implemented in the user file
1432:Drivers/STM32F7xx_HAL_Driver/Src/stm32f7xx_hal_tim.c ****    */
1433:Drivers/STM32F7xx_HAL_Driver/Src/stm32f7xx_hal_tim.c **** }
 120              		.loc 1 1433 1 is_stmt 0 view .LVU14
 121 0000 7047     		bx	lr
 122              		.cfi_endproc
 123              	.LFE163:
 125              		.section	.text.HAL_TIM_PWM_MspDeInit,"ax",%progbits
 126              		.align	1
 127              		.weak	HAL_TIM_PWM_MspDeInit
 128              		.syntax unified
 129              		.thumb
 130              		.thumb_func
 132              	HAL_TIM_PWM_MspDeInit:
 133              	.LVL5:
 134              	.LFB164:
1434:Drivers/STM32F7xx_HAL_Driver/Src/stm32f7xx_hal_tim.c **** 
1435:Drivers/STM32F7xx_HAL_Driver/Src/stm32f7xx_hal_tim.c **** /**
1436:Drivers/STM32F7xx_HAL_Driver/Src/stm32f7xx_hal_tim.c ****   * @brief  DeInitializes TIM PWM MSP.
1437:Drivers/STM32F7xx_HAL_Driver/Src/stm32f7xx_hal_tim.c ****   * @param  htim TIM PWM handle
1438:Drivers/STM32F7xx_HAL_Driver/Src/stm32f7xx_hal_tim.c ****   * @retval None
1439:Drivers/STM32F7xx_HAL_Driver/Src/stm32f7xx_hal_tim.c ****   */
1440:Drivers/STM32F7xx_HAL_Driver/Src/stm32f7xx_hal_tim.c **** __weak void HAL_TIM_PWM_MspDeInit(TIM_HandleTypeDef *htim)
1441:Drivers/STM32F7xx_HAL_Driver/Src/stm32f7xx_hal_tim.c **** {
 135              		.loc 1 1441 1 is_stmt 1 view -0
 136              		.cfi_startproc
 137              		@ args = 0, pretend = 0, frame = 0
 138              		@ frame_needed = 0, uses_anonymous_args = 0
 139              		@ link register save eliminated.
1442:Drivers/STM32F7xx_HAL_Driver/Src/stm32f7xx_hal_tim.c ****   /* Prevent unused argument(s) compilation warning */
1443:Drivers/STM32F7xx_HAL_Driver/Src/stm32f7xx_hal_tim.c ****   UNUSED(htim);
 140              		.loc 1 1443 3 view .LVU16
1444:Drivers/STM32F7xx_HAL_Driver/Src/stm32f7xx_hal_tim.c **** 
1445:Drivers/STM32F7xx_HAL_Driver/Src/stm32f7xx_hal_tim.c ****   /* NOTE : This function should not be modified, when the callback is needed,
1446:Drivers/STM32F7xx_HAL_Driver/Src/stm32f7xx_hal_tim.c ****             the HAL_TIM_PWM_MspDeInit could be implemented in the user file
1447:Drivers/STM32F7xx_HAL_Driver/Src/stm32f7xx_hal_tim.c ****    */
1448:Drivers/STM32F7xx_HAL_Driver/Src/stm32f7xx_hal_tim.c **** }
 141              		.loc 1 1448 1 is_stmt 0 view .LVU17
 142 0000 7047     		bx	lr
 143              		.cfi_endproc
 144              	.LFE164:
 146              		.section	.text.HAL_TIM_IC_MspInit,"ax",%progbits
 147              		.align	1
 148              		.weak	HAL_TIM_IC_MspInit
 149              		.syntax unified
 150              		.thumb
 151              		.thumb_func
 153              	HAL_TIM_IC_MspInit:
 154              	.LVL6:
 155              	.LFB173:
1449:Drivers/STM32F7xx_HAL_Driver/Src/stm32f7xx_hal_tim.c **** 
1450:Drivers/STM32F7xx_HAL_Driver/Src/stm32f7xx_hal_tim.c **** /**
1451:Drivers/STM32F7xx_HAL_Driver/Src/stm32f7xx_hal_tim.c ****   * @brief  Starts the PWM signal generation.
1452:Drivers/STM32F7xx_HAL_Driver/Src/stm32f7xx_hal_tim.c ****   * @param  htim TIM handle
1453:Drivers/STM32F7xx_HAL_Driver/Src/stm32f7xx_hal_tim.c ****   * @param  Channel TIM Channels to be enabled
1454:Drivers/STM32F7xx_HAL_Driver/Src/stm32f7xx_hal_tim.c ****   *          This parameter can be one of the following values:
ARM GAS  /tmp/ccxnnoCQ.s 			page 29


1455:Drivers/STM32F7xx_HAL_Driver/Src/stm32f7xx_hal_tim.c ****   *            @arg TIM_CHANNEL_1: TIM Channel 1 selected
1456:Drivers/STM32F7xx_HAL_Driver/Src/stm32f7xx_hal_tim.c ****   *            @arg TIM_CHANNEL_2: TIM Channel 2 selected
1457:Drivers/STM32F7xx_HAL_Driver/Src/stm32f7xx_hal_tim.c ****   *            @arg TIM_CHANNEL_3: TIM Channel 3 selected
1458:Drivers/STM32F7xx_HAL_Driver/Src/stm32f7xx_hal_tim.c ****   *            @arg TIM_CHANNEL_4: TIM Channel 4 selected
1459:Drivers/STM32F7xx_HAL_Driver/Src/stm32f7xx_hal_tim.c ****   *            @arg TIM_CHANNEL_5: TIM Channel 5 selected
1460:Drivers/STM32F7xx_HAL_Driver/Src/stm32f7xx_hal_tim.c ****   *            @arg TIM_CHANNEL_6: TIM Channel 6 selected
1461:Drivers/STM32F7xx_HAL_Driver/Src/stm32f7xx_hal_tim.c ****   * @retval HAL status
1462:Drivers/STM32F7xx_HAL_Driver/Src/stm32f7xx_hal_tim.c ****   */
1463:Drivers/STM32F7xx_HAL_Driver/Src/stm32f7xx_hal_tim.c **** HAL_StatusTypeDef HAL_TIM_PWM_Start(TIM_HandleTypeDef *htim, uint32_t Channel)
1464:Drivers/STM32F7xx_HAL_Driver/Src/stm32f7xx_hal_tim.c **** {
1465:Drivers/STM32F7xx_HAL_Driver/Src/stm32f7xx_hal_tim.c ****   uint32_t tmpsmcr;
1466:Drivers/STM32F7xx_HAL_Driver/Src/stm32f7xx_hal_tim.c **** 
1467:Drivers/STM32F7xx_HAL_Driver/Src/stm32f7xx_hal_tim.c ****   /* Check the parameters */
1468:Drivers/STM32F7xx_HAL_Driver/Src/stm32f7xx_hal_tim.c ****   assert_param(IS_TIM_CCX_INSTANCE(htim->Instance, Channel));
1469:Drivers/STM32F7xx_HAL_Driver/Src/stm32f7xx_hal_tim.c **** 
1470:Drivers/STM32F7xx_HAL_Driver/Src/stm32f7xx_hal_tim.c ****   /* Check the TIM channel state */
1471:Drivers/STM32F7xx_HAL_Driver/Src/stm32f7xx_hal_tim.c ****   if (TIM_CHANNEL_STATE_GET(htim, Channel) != HAL_TIM_CHANNEL_STATE_READY)
1472:Drivers/STM32F7xx_HAL_Driver/Src/stm32f7xx_hal_tim.c ****   {
1473:Drivers/STM32F7xx_HAL_Driver/Src/stm32f7xx_hal_tim.c ****     return HAL_ERROR;
1474:Drivers/STM32F7xx_HAL_Driver/Src/stm32f7xx_hal_tim.c ****   }
1475:Drivers/STM32F7xx_HAL_Driver/Src/stm32f7xx_hal_tim.c **** 
1476:Drivers/STM32F7xx_HAL_Driver/Src/stm32f7xx_hal_tim.c ****   /* Set the TIM channel state */
1477:Drivers/STM32F7xx_HAL_Driver/Src/stm32f7xx_hal_tim.c ****   TIM_CHANNEL_STATE_SET(htim, Channel, HAL_TIM_CHANNEL_STATE_BUSY);
1478:Drivers/STM32F7xx_HAL_Driver/Src/stm32f7xx_hal_tim.c **** 
1479:Drivers/STM32F7xx_HAL_Driver/Src/stm32f7xx_hal_tim.c ****   /* Enable the Capture compare channel */
1480:Drivers/STM32F7xx_HAL_Driver/Src/stm32f7xx_hal_tim.c ****   TIM_CCxChannelCmd(htim->Instance, Channel, TIM_CCx_ENABLE);
1481:Drivers/STM32F7xx_HAL_Driver/Src/stm32f7xx_hal_tim.c **** 
1482:Drivers/STM32F7xx_HAL_Driver/Src/stm32f7xx_hal_tim.c ****   if (IS_TIM_BREAK_INSTANCE(htim->Instance) != RESET)
1483:Drivers/STM32F7xx_HAL_Driver/Src/stm32f7xx_hal_tim.c ****   {
1484:Drivers/STM32F7xx_HAL_Driver/Src/stm32f7xx_hal_tim.c ****     /* Enable the main output */
1485:Drivers/STM32F7xx_HAL_Driver/Src/stm32f7xx_hal_tim.c ****     __HAL_TIM_MOE_ENABLE(htim);
1486:Drivers/STM32F7xx_HAL_Driver/Src/stm32f7xx_hal_tim.c ****   }
1487:Drivers/STM32F7xx_HAL_Driver/Src/stm32f7xx_hal_tim.c **** 
1488:Drivers/STM32F7xx_HAL_Driver/Src/stm32f7xx_hal_tim.c ****   /* Enable the Peripheral, except in trigger mode where enable is automatically done with trigger 
1489:Drivers/STM32F7xx_HAL_Driver/Src/stm32f7xx_hal_tim.c ****   if (IS_TIM_SLAVE_INSTANCE(htim->Instance))
1490:Drivers/STM32F7xx_HAL_Driver/Src/stm32f7xx_hal_tim.c ****   {
1491:Drivers/STM32F7xx_HAL_Driver/Src/stm32f7xx_hal_tim.c ****     tmpsmcr = htim->Instance->SMCR & TIM_SMCR_SMS;
1492:Drivers/STM32F7xx_HAL_Driver/Src/stm32f7xx_hal_tim.c ****     if (!IS_TIM_SLAVEMODE_TRIGGER_ENABLED(tmpsmcr))
1493:Drivers/STM32F7xx_HAL_Driver/Src/stm32f7xx_hal_tim.c ****     {
1494:Drivers/STM32F7xx_HAL_Driver/Src/stm32f7xx_hal_tim.c ****       __HAL_TIM_ENABLE(htim);
1495:Drivers/STM32F7xx_HAL_Driver/Src/stm32f7xx_hal_tim.c ****     }
1496:Drivers/STM32F7xx_HAL_Driver/Src/stm32f7xx_hal_tim.c ****   }
1497:Drivers/STM32F7xx_HAL_Driver/Src/stm32f7xx_hal_tim.c ****   else
1498:Drivers/STM32F7xx_HAL_Driver/Src/stm32f7xx_hal_tim.c ****   {
1499:Drivers/STM32F7xx_HAL_Driver/Src/stm32f7xx_hal_tim.c ****     __HAL_TIM_ENABLE(htim);
1500:Drivers/STM32F7xx_HAL_Driver/Src/stm32f7xx_hal_tim.c ****   }
1501:Drivers/STM32F7xx_HAL_Driver/Src/stm32f7xx_hal_tim.c **** 
1502:Drivers/STM32F7xx_HAL_Driver/Src/stm32f7xx_hal_tim.c ****   /* Return function status */
1503:Drivers/STM32F7xx_HAL_Driver/Src/stm32f7xx_hal_tim.c ****   return HAL_OK;
1504:Drivers/STM32F7xx_HAL_Driver/Src/stm32f7xx_hal_tim.c **** }
1505:Drivers/STM32F7xx_HAL_Driver/Src/stm32f7xx_hal_tim.c **** 
1506:Drivers/STM32F7xx_HAL_Driver/Src/stm32f7xx_hal_tim.c **** /**
1507:Drivers/STM32F7xx_HAL_Driver/Src/stm32f7xx_hal_tim.c ****   * @brief  Stops the PWM signal generation.
1508:Drivers/STM32F7xx_HAL_Driver/Src/stm32f7xx_hal_tim.c ****   * @param  htim TIM PWM handle
1509:Drivers/STM32F7xx_HAL_Driver/Src/stm32f7xx_hal_tim.c ****   * @param  Channel TIM Channels to be disabled
1510:Drivers/STM32F7xx_HAL_Driver/Src/stm32f7xx_hal_tim.c ****   *          This parameter can be one of the following values:
1511:Drivers/STM32F7xx_HAL_Driver/Src/stm32f7xx_hal_tim.c ****   *            @arg TIM_CHANNEL_1: TIM Channel 1 selected
ARM GAS  /tmp/ccxnnoCQ.s 			page 30


1512:Drivers/STM32F7xx_HAL_Driver/Src/stm32f7xx_hal_tim.c ****   *            @arg TIM_CHANNEL_2: TIM Channel 2 selected
1513:Drivers/STM32F7xx_HAL_Driver/Src/stm32f7xx_hal_tim.c ****   *            @arg TIM_CHANNEL_3: TIM Channel 3 selected
1514:Drivers/STM32F7xx_HAL_Driver/Src/stm32f7xx_hal_tim.c ****   *            @arg TIM_CHANNEL_4: TIM Channel 4 selected
1515:Drivers/STM32F7xx_HAL_Driver/Src/stm32f7xx_hal_tim.c ****   *            @arg TIM_CHANNEL_5: TIM Channel 5 selected
1516:Drivers/STM32F7xx_HAL_Driver/Src/stm32f7xx_hal_tim.c ****   *            @arg TIM_CHANNEL_6: TIM Channel 6 selected
1517:Drivers/STM32F7xx_HAL_Driver/Src/stm32f7xx_hal_tim.c ****   * @retval HAL status
1518:Drivers/STM32F7xx_HAL_Driver/Src/stm32f7xx_hal_tim.c ****   */
1519:Drivers/STM32F7xx_HAL_Driver/Src/stm32f7xx_hal_tim.c **** HAL_StatusTypeDef HAL_TIM_PWM_Stop(TIM_HandleTypeDef *htim, uint32_t Channel)
1520:Drivers/STM32F7xx_HAL_Driver/Src/stm32f7xx_hal_tim.c **** {
1521:Drivers/STM32F7xx_HAL_Driver/Src/stm32f7xx_hal_tim.c ****   /* Check the parameters */
1522:Drivers/STM32F7xx_HAL_Driver/Src/stm32f7xx_hal_tim.c ****   assert_param(IS_TIM_CCX_INSTANCE(htim->Instance, Channel));
1523:Drivers/STM32F7xx_HAL_Driver/Src/stm32f7xx_hal_tim.c **** 
1524:Drivers/STM32F7xx_HAL_Driver/Src/stm32f7xx_hal_tim.c ****   /* Disable the Capture compare channel */
1525:Drivers/STM32F7xx_HAL_Driver/Src/stm32f7xx_hal_tim.c ****   TIM_CCxChannelCmd(htim->Instance, Channel, TIM_CCx_DISABLE);
1526:Drivers/STM32F7xx_HAL_Driver/Src/stm32f7xx_hal_tim.c **** 
1527:Drivers/STM32F7xx_HAL_Driver/Src/stm32f7xx_hal_tim.c ****   if (IS_TIM_BREAK_INSTANCE(htim->Instance) != RESET)
1528:Drivers/STM32F7xx_HAL_Driver/Src/stm32f7xx_hal_tim.c ****   {
1529:Drivers/STM32F7xx_HAL_Driver/Src/stm32f7xx_hal_tim.c ****     /* Disable the Main Output */
1530:Drivers/STM32F7xx_HAL_Driver/Src/stm32f7xx_hal_tim.c ****     __HAL_TIM_MOE_DISABLE(htim);
1531:Drivers/STM32F7xx_HAL_Driver/Src/stm32f7xx_hal_tim.c ****   }
1532:Drivers/STM32F7xx_HAL_Driver/Src/stm32f7xx_hal_tim.c **** 
1533:Drivers/STM32F7xx_HAL_Driver/Src/stm32f7xx_hal_tim.c ****   /* Disable the Peripheral */
1534:Drivers/STM32F7xx_HAL_Driver/Src/stm32f7xx_hal_tim.c ****   __HAL_TIM_DISABLE(htim);
1535:Drivers/STM32F7xx_HAL_Driver/Src/stm32f7xx_hal_tim.c **** 
1536:Drivers/STM32F7xx_HAL_Driver/Src/stm32f7xx_hal_tim.c ****   /* Set the TIM channel state */
1537:Drivers/STM32F7xx_HAL_Driver/Src/stm32f7xx_hal_tim.c ****   TIM_CHANNEL_STATE_SET(htim, Channel, HAL_TIM_CHANNEL_STATE_READY);
1538:Drivers/STM32F7xx_HAL_Driver/Src/stm32f7xx_hal_tim.c **** 
1539:Drivers/STM32F7xx_HAL_Driver/Src/stm32f7xx_hal_tim.c ****   /* Return function status */
1540:Drivers/STM32F7xx_HAL_Driver/Src/stm32f7xx_hal_tim.c ****   return HAL_OK;
1541:Drivers/STM32F7xx_HAL_Driver/Src/stm32f7xx_hal_tim.c **** }
1542:Drivers/STM32F7xx_HAL_Driver/Src/stm32f7xx_hal_tim.c **** 
1543:Drivers/STM32F7xx_HAL_Driver/Src/stm32f7xx_hal_tim.c **** /**
1544:Drivers/STM32F7xx_HAL_Driver/Src/stm32f7xx_hal_tim.c ****   * @brief  Starts the PWM signal generation in interrupt mode.
1545:Drivers/STM32F7xx_HAL_Driver/Src/stm32f7xx_hal_tim.c ****   * @param  htim TIM PWM handle
1546:Drivers/STM32F7xx_HAL_Driver/Src/stm32f7xx_hal_tim.c ****   * @param  Channel TIM Channel to be enabled
1547:Drivers/STM32F7xx_HAL_Driver/Src/stm32f7xx_hal_tim.c ****   *          This parameter can be one of the following values:
1548:Drivers/STM32F7xx_HAL_Driver/Src/stm32f7xx_hal_tim.c ****   *            @arg TIM_CHANNEL_1: TIM Channel 1 selected
1549:Drivers/STM32F7xx_HAL_Driver/Src/stm32f7xx_hal_tim.c ****   *            @arg TIM_CHANNEL_2: TIM Channel 2 selected
1550:Drivers/STM32F7xx_HAL_Driver/Src/stm32f7xx_hal_tim.c ****   *            @arg TIM_CHANNEL_3: TIM Channel 3 selected
1551:Drivers/STM32F7xx_HAL_Driver/Src/stm32f7xx_hal_tim.c ****   *            @arg TIM_CHANNEL_4: TIM Channel 4 selected
1552:Drivers/STM32F7xx_HAL_Driver/Src/stm32f7xx_hal_tim.c ****   * @retval HAL status
1553:Drivers/STM32F7xx_HAL_Driver/Src/stm32f7xx_hal_tim.c ****   */
1554:Drivers/STM32F7xx_HAL_Driver/Src/stm32f7xx_hal_tim.c **** HAL_StatusTypeDef HAL_TIM_PWM_Start_IT(TIM_HandleTypeDef *htim, uint32_t Channel)
1555:Drivers/STM32F7xx_HAL_Driver/Src/stm32f7xx_hal_tim.c **** {
1556:Drivers/STM32F7xx_HAL_Driver/Src/stm32f7xx_hal_tim.c ****   HAL_StatusTypeDef status = HAL_OK;
1557:Drivers/STM32F7xx_HAL_Driver/Src/stm32f7xx_hal_tim.c ****   uint32_t tmpsmcr;
1558:Drivers/STM32F7xx_HAL_Driver/Src/stm32f7xx_hal_tim.c **** 
1559:Drivers/STM32F7xx_HAL_Driver/Src/stm32f7xx_hal_tim.c ****   /* Check the parameters */
1560:Drivers/STM32F7xx_HAL_Driver/Src/stm32f7xx_hal_tim.c ****   assert_param(IS_TIM_CCX_INSTANCE(htim->Instance, Channel));
1561:Drivers/STM32F7xx_HAL_Driver/Src/stm32f7xx_hal_tim.c **** 
1562:Drivers/STM32F7xx_HAL_Driver/Src/stm32f7xx_hal_tim.c ****   /* Check the TIM channel state */
1563:Drivers/STM32F7xx_HAL_Driver/Src/stm32f7xx_hal_tim.c ****   if (TIM_CHANNEL_STATE_GET(htim, Channel) != HAL_TIM_CHANNEL_STATE_READY)
1564:Drivers/STM32F7xx_HAL_Driver/Src/stm32f7xx_hal_tim.c ****   {
1565:Drivers/STM32F7xx_HAL_Driver/Src/stm32f7xx_hal_tim.c ****     return HAL_ERROR;
1566:Drivers/STM32F7xx_HAL_Driver/Src/stm32f7xx_hal_tim.c ****   }
1567:Drivers/STM32F7xx_HAL_Driver/Src/stm32f7xx_hal_tim.c **** 
1568:Drivers/STM32F7xx_HAL_Driver/Src/stm32f7xx_hal_tim.c ****   /* Set the TIM channel state */
ARM GAS  /tmp/ccxnnoCQ.s 			page 31


1569:Drivers/STM32F7xx_HAL_Driver/Src/stm32f7xx_hal_tim.c ****   TIM_CHANNEL_STATE_SET(htim, Channel, HAL_TIM_CHANNEL_STATE_BUSY);
1570:Drivers/STM32F7xx_HAL_Driver/Src/stm32f7xx_hal_tim.c **** 
1571:Drivers/STM32F7xx_HAL_Driver/Src/stm32f7xx_hal_tim.c ****   switch (Channel)
1572:Drivers/STM32F7xx_HAL_Driver/Src/stm32f7xx_hal_tim.c ****   {
1573:Drivers/STM32F7xx_HAL_Driver/Src/stm32f7xx_hal_tim.c ****     case TIM_CHANNEL_1:
1574:Drivers/STM32F7xx_HAL_Driver/Src/stm32f7xx_hal_tim.c ****     {
1575:Drivers/STM32F7xx_HAL_Driver/Src/stm32f7xx_hal_tim.c ****       /* Enable the TIM Capture/Compare 1 interrupt */
1576:Drivers/STM32F7xx_HAL_Driver/Src/stm32f7xx_hal_tim.c ****       __HAL_TIM_ENABLE_IT(htim, TIM_IT_CC1);
1577:Drivers/STM32F7xx_HAL_Driver/Src/stm32f7xx_hal_tim.c ****       break;
1578:Drivers/STM32F7xx_HAL_Driver/Src/stm32f7xx_hal_tim.c ****     }
1579:Drivers/STM32F7xx_HAL_Driver/Src/stm32f7xx_hal_tim.c **** 
1580:Drivers/STM32F7xx_HAL_Driver/Src/stm32f7xx_hal_tim.c ****     case TIM_CHANNEL_2:
1581:Drivers/STM32F7xx_HAL_Driver/Src/stm32f7xx_hal_tim.c ****     {
1582:Drivers/STM32F7xx_HAL_Driver/Src/stm32f7xx_hal_tim.c ****       /* Enable the TIM Capture/Compare 2 interrupt */
1583:Drivers/STM32F7xx_HAL_Driver/Src/stm32f7xx_hal_tim.c ****       __HAL_TIM_ENABLE_IT(htim, TIM_IT_CC2);
1584:Drivers/STM32F7xx_HAL_Driver/Src/stm32f7xx_hal_tim.c ****       break;
1585:Drivers/STM32F7xx_HAL_Driver/Src/stm32f7xx_hal_tim.c ****     }
1586:Drivers/STM32F7xx_HAL_Driver/Src/stm32f7xx_hal_tim.c **** 
1587:Drivers/STM32F7xx_HAL_Driver/Src/stm32f7xx_hal_tim.c ****     case TIM_CHANNEL_3:
1588:Drivers/STM32F7xx_HAL_Driver/Src/stm32f7xx_hal_tim.c ****     {
1589:Drivers/STM32F7xx_HAL_Driver/Src/stm32f7xx_hal_tim.c ****       /* Enable the TIM Capture/Compare 3 interrupt */
1590:Drivers/STM32F7xx_HAL_Driver/Src/stm32f7xx_hal_tim.c ****       __HAL_TIM_ENABLE_IT(htim, TIM_IT_CC3);
1591:Drivers/STM32F7xx_HAL_Driver/Src/stm32f7xx_hal_tim.c ****       break;
1592:Drivers/STM32F7xx_HAL_Driver/Src/stm32f7xx_hal_tim.c ****     }
1593:Drivers/STM32F7xx_HAL_Driver/Src/stm32f7xx_hal_tim.c **** 
1594:Drivers/STM32F7xx_HAL_Driver/Src/stm32f7xx_hal_tim.c ****     case TIM_CHANNEL_4:
1595:Drivers/STM32F7xx_HAL_Driver/Src/stm32f7xx_hal_tim.c ****     {
1596:Drivers/STM32F7xx_HAL_Driver/Src/stm32f7xx_hal_tim.c ****       /* Enable the TIM Capture/Compare 4 interrupt */
1597:Drivers/STM32F7xx_HAL_Driver/Src/stm32f7xx_hal_tim.c ****       __HAL_TIM_ENABLE_IT(htim, TIM_IT_CC4);
1598:Drivers/STM32F7xx_HAL_Driver/Src/stm32f7xx_hal_tim.c ****       break;
1599:Drivers/STM32F7xx_HAL_Driver/Src/stm32f7xx_hal_tim.c ****     }
1600:Drivers/STM32F7xx_HAL_Driver/Src/stm32f7xx_hal_tim.c **** 
1601:Drivers/STM32F7xx_HAL_Driver/Src/stm32f7xx_hal_tim.c ****     default:
1602:Drivers/STM32F7xx_HAL_Driver/Src/stm32f7xx_hal_tim.c ****       status = HAL_ERROR;
1603:Drivers/STM32F7xx_HAL_Driver/Src/stm32f7xx_hal_tim.c ****       break;
1604:Drivers/STM32F7xx_HAL_Driver/Src/stm32f7xx_hal_tim.c ****   }
1605:Drivers/STM32F7xx_HAL_Driver/Src/stm32f7xx_hal_tim.c **** 
1606:Drivers/STM32F7xx_HAL_Driver/Src/stm32f7xx_hal_tim.c ****   if (status == HAL_OK)
1607:Drivers/STM32F7xx_HAL_Driver/Src/stm32f7xx_hal_tim.c ****   {
1608:Drivers/STM32F7xx_HAL_Driver/Src/stm32f7xx_hal_tim.c ****     /* Enable the Capture compare channel */
1609:Drivers/STM32F7xx_HAL_Driver/Src/stm32f7xx_hal_tim.c ****     TIM_CCxChannelCmd(htim->Instance, Channel, TIM_CCx_ENABLE);
1610:Drivers/STM32F7xx_HAL_Driver/Src/stm32f7xx_hal_tim.c **** 
1611:Drivers/STM32F7xx_HAL_Driver/Src/stm32f7xx_hal_tim.c ****     if (IS_TIM_BREAK_INSTANCE(htim->Instance) != RESET)
1612:Drivers/STM32F7xx_HAL_Driver/Src/stm32f7xx_hal_tim.c ****     {
1613:Drivers/STM32F7xx_HAL_Driver/Src/stm32f7xx_hal_tim.c ****       /* Enable the main output */
1614:Drivers/STM32F7xx_HAL_Driver/Src/stm32f7xx_hal_tim.c ****       __HAL_TIM_MOE_ENABLE(htim);
1615:Drivers/STM32F7xx_HAL_Driver/Src/stm32f7xx_hal_tim.c ****     }
1616:Drivers/STM32F7xx_HAL_Driver/Src/stm32f7xx_hal_tim.c **** 
1617:Drivers/STM32F7xx_HAL_Driver/Src/stm32f7xx_hal_tim.c ****     /* Enable the Peripheral, except in trigger mode where enable is automatically done with trigge
1618:Drivers/STM32F7xx_HAL_Driver/Src/stm32f7xx_hal_tim.c ****     if (IS_TIM_SLAVE_INSTANCE(htim->Instance))
1619:Drivers/STM32F7xx_HAL_Driver/Src/stm32f7xx_hal_tim.c ****     {
1620:Drivers/STM32F7xx_HAL_Driver/Src/stm32f7xx_hal_tim.c ****       tmpsmcr = htim->Instance->SMCR & TIM_SMCR_SMS;
1621:Drivers/STM32F7xx_HAL_Driver/Src/stm32f7xx_hal_tim.c ****       if (!IS_TIM_SLAVEMODE_TRIGGER_ENABLED(tmpsmcr))
1622:Drivers/STM32F7xx_HAL_Driver/Src/stm32f7xx_hal_tim.c ****       {
1623:Drivers/STM32F7xx_HAL_Driver/Src/stm32f7xx_hal_tim.c ****         __HAL_TIM_ENABLE(htim);
1624:Drivers/STM32F7xx_HAL_Driver/Src/stm32f7xx_hal_tim.c ****       }
1625:Drivers/STM32F7xx_HAL_Driver/Src/stm32f7xx_hal_tim.c ****     }
ARM GAS  /tmp/ccxnnoCQ.s 			page 32


1626:Drivers/STM32F7xx_HAL_Driver/Src/stm32f7xx_hal_tim.c ****     else
1627:Drivers/STM32F7xx_HAL_Driver/Src/stm32f7xx_hal_tim.c ****     {
1628:Drivers/STM32F7xx_HAL_Driver/Src/stm32f7xx_hal_tim.c ****       __HAL_TIM_ENABLE(htim);
1629:Drivers/STM32F7xx_HAL_Driver/Src/stm32f7xx_hal_tim.c ****     }
1630:Drivers/STM32F7xx_HAL_Driver/Src/stm32f7xx_hal_tim.c ****   }
1631:Drivers/STM32F7xx_HAL_Driver/Src/stm32f7xx_hal_tim.c **** 
1632:Drivers/STM32F7xx_HAL_Driver/Src/stm32f7xx_hal_tim.c ****   /* Return function status */
1633:Drivers/STM32F7xx_HAL_Driver/Src/stm32f7xx_hal_tim.c ****   return status;
1634:Drivers/STM32F7xx_HAL_Driver/Src/stm32f7xx_hal_tim.c **** }
1635:Drivers/STM32F7xx_HAL_Driver/Src/stm32f7xx_hal_tim.c **** 
1636:Drivers/STM32F7xx_HAL_Driver/Src/stm32f7xx_hal_tim.c **** /**
1637:Drivers/STM32F7xx_HAL_Driver/Src/stm32f7xx_hal_tim.c ****   * @brief  Stops the PWM signal generation in interrupt mode.
1638:Drivers/STM32F7xx_HAL_Driver/Src/stm32f7xx_hal_tim.c ****   * @param  htim TIM PWM handle
1639:Drivers/STM32F7xx_HAL_Driver/Src/stm32f7xx_hal_tim.c ****   * @param  Channel TIM Channels to be disabled
1640:Drivers/STM32F7xx_HAL_Driver/Src/stm32f7xx_hal_tim.c ****   *          This parameter can be one of the following values:
1641:Drivers/STM32F7xx_HAL_Driver/Src/stm32f7xx_hal_tim.c ****   *            @arg TIM_CHANNEL_1: TIM Channel 1 selected
1642:Drivers/STM32F7xx_HAL_Driver/Src/stm32f7xx_hal_tim.c ****   *            @arg TIM_CHANNEL_2: TIM Channel 2 selected
1643:Drivers/STM32F7xx_HAL_Driver/Src/stm32f7xx_hal_tim.c ****   *            @arg TIM_CHANNEL_3: TIM Channel 3 selected
1644:Drivers/STM32F7xx_HAL_Driver/Src/stm32f7xx_hal_tim.c ****   *            @arg TIM_CHANNEL_4: TIM Channel 4 selected
1645:Drivers/STM32F7xx_HAL_Driver/Src/stm32f7xx_hal_tim.c ****   * @retval HAL status
1646:Drivers/STM32F7xx_HAL_Driver/Src/stm32f7xx_hal_tim.c ****   */
1647:Drivers/STM32F7xx_HAL_Driver/Src/stm32f7xx_hal_tim.c **** HAL_StatusTypeDef HAL_TIM_PWM_Stop_IT(TIM_HandleTypeDef *htim, uint32_t Channel)
1648:Drivers/STM32F7xx_HAL_Driver/Src/stm32f7xx_hal_tim.c **** {
1649:Drivers/STM32F7xx_HAL_Driver/Src/stm32f7xx_hal_tim.c ****   HAL_StatusTypeDef status = HAL_OK;
1650:Drivers/STM32F7xx_HAL_Driver/Src/stm32f7xx_hal_tim.c **** 
1651:Drivers/STM32F7xx_HAL_Driver/Src/stm32f7xx_hal_tim.c ****   /* Check the parameters */
1652:Drivers/STM32F7xx_HAL_Driver/Src/stm32f7xx_hal_tim.c ****   assert_param(IS_TIM_CCX_INSTANCE(htim->Instance, Channel));
1653:Drivers/STM32F7xx_HAL_Driver/Src/stm32f7xx_hal_tim.c **** 
1654:Drivers/STM32F7xx_HAL_Driver/Src/stm32f7xx_hal_tim.c ****   switch (Channel)
1655:Drivers/STM32F7xx_HAL_Driver/Src/stm32f7xx_hal_tim.c ****   {
1656:Drivers/STM32F7xx_HAL_Driver/Src/stm32f7xx_hal_tim.c ****     case TIM_CHANNEL_1:
1657:Drivers/STM32F7xx_HAL_Driver/Src/stm32f7xx_hal_tim.c ****     {
1658:Drivers/STM32F7xx_HAL_Driver/Src/stm32f7xx_hal_tim.c ****       /* Disable the TIM Capture/Compare 1 interrupt */
1659:Drivers/STM32F7xx_HAL_Driver/Src/stm32f7xx_hal_tim.c ****       __HAL_TIM_DISABLE_IT(htim, TIM_IT_CC1);
1660:Drivers/STM32F7xx_HAL_Driver/Src/stm32f7xx_hal_tim.c ****       break;
1661:Drivers/STM32F7xx_HAL_Driver/Src/stm32f7xx_hal_tim.c ****     }
1662:Drivers/STM32F7xx_HAL_Driver/Src/stm32f7xx_hal_tim.c **** 
1663:Drivers/STM32F7xx_HAL_Driver/Src/stm32f7xx_hal_tim.c ****     case TIM_CHANNEL_2:
1664:Drivers/STM32F7xx_HAL_Driver/Src/stm32f7xx_hal_tim.c ****     {
1665:Drivers/STM32F7xx_HAL_Driver/Src/stm32f7xx_hal_tim.c ****       /* Disable the TIM Capture/Compare 2 interrupt */
1666:Drivers/STM32F7xx_HAL_Driver/Src/stm32f7xx_hal_tim.c ****       __HAL_TIM_DISABLE_IT(htim, TIM_IT_CC2);
1667:Drivers/STM32F7xx_HAL_Driver/Src/stm32f7xx_hal_tim.c ****       break;
1668:Drivers/STM32F7xx_HAL_Driver/Src/stm32f7xx_hal_tim.c ****     }
1669:Drivers/STM32F7xx_HAL_Driver/Src/stm32f7xx_hal_tim.c **** 
1670:Drivers/STM32F7xx_HAL_Driver/Src/stm32f7xx_hal_tim.c ****     case TIM_CHANNEL_3:
1671:Drivers/STM32F7xx_HAL_Driver/Src/stm32f7xx_hal_tim.c ****     {
1672:Drivers/STM32F7xx_HAL_Driver/Src/stm32f7xx_hal_tim.c ****       /* Disable the TIM Capture/Compare 3 interrupt */
1673:Drivers/STM32F7xx_HAL_Driver/Src/stm32f7xx_hal_tim.c ****       __HAL_TIM_DISABLE_IT(htim, TIM_IT_CC3);
1674:Drivers/STM32F7xx_HAL_Driver/Src/stm32f7xx_hal_tim.c ****       break;
1675:Drivers/STM32F7xx_HAL_Driver/Src/stm32f7xx_hal_tim.c ****     }
1676:Drivers/STM32F7xx_HAL_Driver/Src/stm32f7xx_hal_tim.c **** 
1677:Drivers/STM32F7xx_HAL_Driver/Src/stm32f7xx_hal_tim.c ****     case TIM_CHANNEL_4:
1678:Drivers/STM32F7xx_HAL_Driver/Src/stm32f7xx_hal_tim.c ****     {
1679:Drivers/STM32F7xx_HAL_Driver/Src/stm32f7xx_hal_tim.c ****       /* Disable the TIM Capture/Compare 4 interrupt */
1680:Drivers/STM32F7xx_HAL_Driver/Src/stm32f7xx_hal_tim.c ****       __HAL_TIM_DISABLE_IT(htim, TIM_IT_CC4);
1681:Drivers/STM32F7xx_HAL_Driver/Src/stm32f7xx_hal_tim.c ****       break;
1682:Drivers/STM32F7xx_HAL_Driver/Src/stm32f7xx_hal_tim.c ****     }
ARM GAS  /tmp/ccxnnoCQ.s 			page 33


1683:Drivers/STM32F7xx_HAL_Driver/Src/stm32f7xx_hal_tim.c **** 
1684:Drivers/STM32F7xx_HAL_Driver/Src/stm32f7xx_hal_tim.c ****     default:
1685:Drivers/STM32F7xx_HAL_Driver/Src/stm32f7xx_hal_tim.c ****       status = HAL_ERROR;
1686:Drivers/STM32F7xx_HAL_Driver/Src/stm32f7xx_hal_tim.c ****       break;
1687:Drivers/STM32F7xx_HAL_Driver/Src/stm32f7xx_hal_tim.c ****   }
1688:Drivers/STM32F7xx_HAL_Driver/Src/stm32f7xx_hal_tim.c **** 
1689:Drivers/STM32F7xx_HAL_Driver/Src/stm32f7xx_hal_tim.c ****   if (status == HAL_OK)
1690:Drivers/STM32F7xx_HAL_Driver/Src/stm32f7xx_hal_tim.c ****   {
1691:Drivers/STM32F7xx_HAL_Driver/Src/stm32f7xx_hal_tim.c ****     /* Disable the Capture compare channel */
1692:Drivers/STM32F7xx_HAL_Driver/Src/stm32f7xx_hal_tim.c ****     TIM_CCxChannelCmd(htim->Instance, Channel, TIM_CCx_DISABLE);
1693:Drivers/STM32F7xx_HAL_Driver/Src/stm32f7xx_hal_tim.c **** 
1694:Drivers/STM32F7xx_HAL_Driver/Src/stm32f7xx_hal_tim.c ****     if (IS_TIM_BREAK_INSTANCE(htim->Instance) != RESET)
1695:Drivers/STM32F7xx_HAL_Driver/Src/stm32f7xx_hal_tim.c ****     {
1696:Drivers/STM32F7xx_HAL_Driver/Src/stm32f7xx_hal_tim.c ****       /* Disable the Main Output */
1697:Drivers/STM32F7xx_HAL_Driver/Src/stm32f7xx_hal_tim.c ****       __HAL_TIM_MOE_DISABLE(htim);
1698:Drivers/STM32F7xx_HAL_Driver/Src/stm32f7xx_hal_tim.c ****     }
1699:Drivers/STM32F7xx_HAL_Driver/Src/stm32f7xx_hal_tim.c **** 
1700:Drivers/STM32F7xx_HAL_Driver/Src/stm32f7xx_hal_tim.c ****     /* Disable the Peripheral */
1701:Drivers/STM32F7xx_HAL_Driver/Src/stm32f7xx_hal_tim.c ****     __HAL_TIM_DISABLE(htim);
1702:Drivers/STM32F7xx_HAL_Driver/Src/stm32f7xx_hal_tim.c **** 
1703:Drivers/STM32F7xx_HAL_Driver/Src/stm32f7xx_hal_tim.c ****     /* Set the TIM channel state */
1704:Drivers/STM32F7xx_HAL_Driver/Src/stm32f7xx_hal_tim.c ****     TIM_CHANNEL_STATE_SET(htim, Channel, HAL_TIM_CHANNEL_STATE_READY);
1705:Drivers/STM32F7xx_HAL_Driver/Src/stm32f7xx_hal_tim.c ****   }
1706:Drivers/STM32F7xx_HAL_Driver/Src/stm32f7xx_hal_tim.c **** 
1707:Drivers/STM32F7xx_HAL_Driver/Src/stm32f7xx_hal_tim.c ****   /* Return function status */
1708:Drivers/STM32F7xx_HAL_Driver/Src/stm32f7xx_hal_tim.c ****   return status;
1709:Drivers/STM32F7xx_HAL_Driver/Src/stm32f7xx_hal_tim.c **** }
1710:Drivers/STM32F7xx_HAL_Driver/Src/stm32f7xx_hal_tim.c **** 
1711:Drivers/STM32F7xx_HAL_Driver/Src/stm32f7xx_hal_tim.c **** /**
1712:Drivers/STM32F7xx_HAL_Driver/Src/stm32f7xx_hal_tim.c ****   * @brief  Starts the TIM PWM signal generation in DMA mode.
1713:Drivers/STM32F7xx_HAL_Driver/Src/stm32f7xx_hal_tim.c ****   * @param  htim TIM PWM handle
1714:Drivers/STM32F7xx_HAL_Driver/Src/stm32f7xx_hal_tim.c ****   * @param  Channel TIM Channels to be enabled
1715:Drivers/STM32F7xx_HAL_Driver/Src/stm32f7xx_hal_tim.c ****   *          This parameter can be one of the following values:
1716:Drivers/STM32F7xx_HAL_Driver/Src/stm32f7xx_hal_tim.c ****   *            @arg TIM_CHANNEL_1: TIM Channel 1 selected
1717:Drivers/STM32F7xx_HAL_Driver/Src/stm32f7xx_hal_tim.c ****   *            @arg TIM_CHANNEL_2: TIM Channel 2 selected
1718:Drivers/STM32F7xx_HAL_Driver/Src/stm32f7xx_hal_tim.c ****   *            @arg TIM_CHANNEL_3: TIM Channel 3 selected
1719:Drivers/STM32F7xx_HAL_Driver/Src/stm32f7xx_hal_tim.c ****   *            @arg TIM_CHANNEL_4: TIM Channel 4 selected
1720:Drivers/STM32F7xx_HAL_Driver/Src/stm32f7xx_hal_tim.c ****   * @param  pData The source Buffer address.
1721:Drivers/STM32F7xx_HAL_Driver/Src/stm32f7xx_hal_tim.c ****   * @param  Length The length of data to be transferred from memory to TIM peripheral
1722:Drivers/STM32F7xx_HAL_Driver/Src/stm32f7xx_hal_tim.c ****   * @retval HAL status
1723:Drivers/STM32F7xx_HAL_Driver/Src/stm32f7xx_hal_tim.c ****   */
1724:Drivers/STM32F7xx_HAL_Driver/Src/stm32f7xx_hal_tim.c **** HAL_StatusTypeDef HAL_TIM_PWM_Start_DMA(TIM_HandleTypeDef *htim, uint32_t Channel, const uint32_t *
1725:Drivers/STM32F7xx_HAL_Driver/Src/stm32f7xx_hal_tim.c ****                                         uint16_t Length)
1726:Drivers/STM32F7xx_HAL_Driver/Src/stm32f7xx_hal_tim.c **** {
1727:Drivers/STM32F7xx_HAL_Driver/Src/stm32f7xx_hal_tim.c ****   HAL_StatusTypeDef status = HAL_OK;
1728:Drivers/STM32F7xx_HAL_Driver/Src/stm32f7xx_hal_tim.c ****   uint32_t tmpsmcr;
1729:Drivers/STM32F7xx_HAL_Driver/Src/stm32f7xx_hal_tim.c **** 
1730:Drivers/STM32F7xx_HAL_Driver/Src/stm32f7xx_hal_tim.c ****   /* Check the parameters */
1731:Drivers/STM32F7xx_HAL_Driver/Src/stm32f7xx_hal_tim.c ****   assert_param(IS_TIM_CCX_INSTANCE(htim->Instance, Channel));
1732:Drivers/STM32F7xx_HAL_Driver/Src/stm32f7xx_hal_tim.c **** 
1733:Drivers/STM32F7xx_HAL_Driver/Src/stm32f7xx_hal_tim.c ****   /* Set the TIM channel state */
1734:Drivers/STM32F7xx_HAL_Driver/Src/stm32f7xx_hal_tim.c ****   if (TIM_CHANNEL_STATE_GET(htim, Channel) == HAL_TIM_CHANNEL_STATE_BUSY)
1735:Drivers/STM32F7xx_HAL_Driver/Src/stm32f7xx_hal_tim.c ****   {
1736:Drivers/STM32F7xx_HAL_Driver/Src/stm32f7xx_hal_tim.c ****     return HAL_BUSY;
1737:Drivers/STM32F7xx_HAL_Driver/Src/stm32f7xx_hal_tim.c ****   }
1738:Drivers/STM32F7xx_HAL_Driver/Src/stm32f7xx_hal_tim.c ****   else if (TIM_CHANNEL_STATE_GET(htim, Channel) == HAL_TIM_CHANNEL_STATE_READY)
1739:Drivers/STM32F7xx_HAL_Driver/Src/stm32f7xx_hal_tim.c ****   {
ARM GAS  /tmp/ccxnnoCQ.s 			page 34


1740:Drivers/STM32F7xx_HAL_Driver/Src/stm32f7xx_hal_tim.c ****     if ((pData == NULL) || (Length == 0U))
1741:Drivers/STM32F7xx_HAL_Driver/Src/stm32f7xx_hal_tim.c ****     {
1742:Drivers/STM32F7xx_HAL_Driver/Src/stm32f7xx_hal_tim.c ****       return HAL_ERROR;
1743:Drivers/STM32F7xx_HAL_Driver/Src/stm32f7xx_hal_tim.c ****     }
1744:Drivers/STM32F7xx_HAL_Driver/Src/stm32f7xx_hal_tim.c ****     else
1745:Drivers/STM32F7xx_HAL_Driver/Src/stm32f7xx_hal_tim.c ****     {
1746:Drivers/STM32F7xx_HAL_Driver/Src/stm32f7xx_hal_tim.c ****       TIM_CHANNEL_STATE_SET(htim, Channel, HAL_TIM_CHANNEL_STATE_BUSY);
1747:Drivers/STM32F7xx_HAL_Driver/Src/stm32f7xx_hal_tim.c ****     }
1748:Drivers/STM32F7xx_HAL_Driver/Src/stm32f7xx_hal_tim.c ****   }
1749:Drivers/STM32F7xx_HAL_Driver/Src/stm32f7xx_hal_tim.c ****   else
1750:Drivers/STM32F7xx_HAL_Driver/Src/stm32f7xx_hal_tim.c ****   {
1751:Drivers/STM32F7xx_HAL_Driver/Src/stm32f7xx_hal_tim.c ****     return HAL_ERROR;
1752:Drivers/STM32F7xx_HAL_Driver/Src/stm32f7xx_hal_tim.c ****   }
1753:Drivers/STM32F7xx_HAL_Driver/Src/stm32f7xx_hal_tim.c **** 
1754:Drivers/STM32F7xx_HAL_Driver/Src/stm32f7xx_hal_tim.c ****   switch (Channel)
1755:Drivers/STM32F7xx_HAL_Driver/Src/stm32f7xx_hal_tim.c ****   {
1756:Drivers/STM32F7xx_HAL_Driver/Src/stm32f7xx_hal_tim.c ****     case TIM_CHANNEL_1:
1757:Drivers/STM32F7xx_HAL_Driver/Src/stm32f7xx_hal_tim.c ****     {
1758:Drivers/STM32F7xx_HAL_Driver/Src/stm32f7xx_hal_tim.c ****       /* Set the DMA compare callbacks */
1759:Drivers/STM32F7xx_HAL_Driver/Src/stm32f7xx_hal_tim.c ****       htim->hdma[TIM_DMA_ID_CC1]->XferCpltCallback = TIM_DMADelayPulseCplt;
1760:Drivers/STM32F7xx_HAL_Driver/Src/stm32f7xx_hal_tim.c ****       htim->hdma[TIM_DMA_ID_CC1]->XferHalfCpltCallback = TIM_DMADelayPulseHalfCplt;
1761:Drivers/STM32F7xx_HAL_Driver/Src/stm32f7xx_hal_tim.c **** 
1762:Drivers/STM32F7xx_HAL_Driver/Src/stm32f7xx_hal_tim.c ****       /* Set the DMA error callback */
1763:Drivers/STM32F7xx_HAL_Driver/Src/stm32f7xx_hal_tim.c ****       htim->hdma[TIM_DMA_ID_CC1]->XferErrorCallback = TIM_DMAError ;
1764:Drivers/STM32F7xx_HAL_Driver/Src/stm32f7xx_hal_tim.c **** 
1765:Drivers/STM32F7xx_HAL_Driver/Src/stm32f7xx_hal_tim.c ****       /* Enable the DMA stream */
1766:Drivers/STM32F7xx_HAL_Driver/Src/stm32f7xx_hal_tim.c ****       if (HAL_DMA_Start_IT(htim->hdma[TIM_DMA_ID_CC1], (uint32_t)pData, (uint32_t)&htim->Instance->
1767:Drivers/STM32F7xx_HAL_Driver/Src/stm32f7xx_hal_tim.c ****                            Length) != HAL_OK)
1768:Drivers/STM32F7xx_HAL_Driver/Src/stm32f7xx_hal_tim.c ****       {
1769:Drivers/STM32F7xx_HAL_Driver/Src/stm32f7xx_hal_tim.c ****         /* Return error status */
1770:Drivers/STM32F7xx_HAL_Driver/Src/stm32f7xx_hal_tim.c ****         return HAL_ERROR;
1771:Drivers/STM32F7xx_HAL_Driver/Src/stm32f7xx_hal_tim.c ****       }
1772:Drivers/STM32F7xx_HAL_Driver/Src/stm32f7xx_hal_tim.c **** 
1773:Drivers/STM32F7xx_HAL_Driver/Src/stm32f7xx_hal_tim.c ****       /* Enable the TIM Capture/Compare 1 DMA request */
1774:Drivers/STM32F7xx_HAL_Driver/Src/stm32f7xx_hal_tim.c ****       __HAL_TIM_ENABLE_DMA(htim, TIM_DMA_CC1);
1775:Drivers/STM32F7xx_HAL_Driver/Src/stm32f7xx_hal_tim.c ****       break;
1776:Drivers/STM32F7xx_HAL_Driver/Src/stm32f7xx_hal_tim.c ****     }
1777:Drivers/STM32F7xx_HAL_Driver/Src/stm32f7xx_hal_tim.c **** 
1778:Drivers/STM32F7xx_HAL_Driver/Src/stm32f7xx_hal_tim.c ****     case TIM_CHANNEL_2:
1779:Drivers/STM32F7xx_HAL_Driver/Src/stm32f7xx_hal_tim.c ****     {
1780:Drivers/STM32F7xx_HAL_Driver/Src/stm32f7xx_hal_tim.c ****       /* Set the DMA compare callbacks */
1781:Drivers/STM32F7xx_HAL_Driver/Src/stm32f7xx_hal_tim.c ****       htim->hdma[TIM_DMA_ID_CC2]->XferCpltCallback = TIM_DMADelayPulseCplt;
1782:Drivers/STM32F7xx_HAL_Driver/Src/stm32f7xx_hal_tim.c ****       htim->hdma[TIM_DMA_ID_CC2]->XferHalfCpltCallback = TIM_DMADelayPulseHalfCplt;
1783:Drivers/STM32F7xx_HAL_Driver/Src/stm32f7xx_hal_tim.c **** 
1784:Drivers/STM32F7xx_HAL_Driver/Src/stm32f7xx_hal_tim.c ****       /* Set the DMA error callback */
1785:Drivers/STM32F7xx_HAL_Driver/Src/stm32f7xx_hal_tim.c ****       htim->hdma[TIM_DMA_ID_CC2]->XferErrorCallback = TIM_DMAError ;
1786:Drivers/STM32F7xx_HAL_Driver/Src/stm32f7xx_hal_tim.c **** 
1787:Drivers/STM32F7xx_HAL_Driver/Src/stm32f7xx_hal_tim.c ****       /* Enable the DMA stream */
1788:Drivers/STM32F7xx_HAL_Driver/Src/stm32f7xx_hal_tim.c ****       if (HAL_DMA_Start_IT(htim->hdma[TIM_DMA_ID_CC2], (uint32_t)pData, (uint32_t)&htim->Instance->
1789:Drivers/STM32F7xx_HAL_Driver/Src/stm32f7xx_hal_tim.c ****                            Length) != HAL_OK)
1790:Drivers/STM32F7xx_HAL_Driver/Src/stm32f7xx_hal_tim.c ****       {
1791:Drivers/STM32F7xx_HAL_Driver/Src/stm32f7xx_hal_tim.c ****         /* Return error status */
1792:Drivers/STM32F7xx_HAL_Driver/Src/stm32f7xx_hal_tim.c ****         return HAL_ERROR;
1793:Drivers/STM32F7xx_HAL_Driver/Src/stm32f7xx_hal_tim.c ****       }
1794:Drivers/STM32F7xx_HAL_Driver/Src/stm32f7xx_hal_tim.c ****       /* Enable the TIM Capture/Compare 2 DMA request */
1795:Drivers/STM32F7xx_HAL_Driver/Src/stm32f7xx_hal_tim.c ****       __HAL_TIM_ENABLE_DMA(htim, TIM_DMA_CC2);
1796:Drivers/STM32F7xx_HAL_Driver/Src/stm32f7xx_hal_tim.c ****       break;
ARM GAS  /tmp/ccxnnoCQ.s 			page 35


1797:Drivers/STM32F7xx_HAL_Driver/Src/stm32f7xx_hal_tim.c ****     }
1798:Drivers/STM32F7xx_HAL_Driver/Src/stm32f7xx_hal_tim.c **** 
1799:Drivers/STM32F7xx_HAL_Driver/Src/stm32f7xx_hal_tim.c ****     case TIM_CHANNEL_3:
1800:Drivers/STM32F7xx_HAL_Driver/Src/stm32f7xx_hal_tim.c ****     {
1801:Drivers/STM32F7xx_HAL_Driver/Src/stm32f7xx_hal_tim.c ****       /* Set the DMA compare callbacks */
1802:Drivers/STM32F7xx_HAL_Driver/Src/stm32f7xx_hal_tim.c ****       htim->hdma[TIM_DMA_ID_CC3]->XferCpltCallback = TIM_DMADelayPulseCplt;
1803:Drivers/STM32F7xx_HAL_Driver/Src/stm32f7xx_hal_tim.c ****       htim->hdma[TIM_DMA_ID_CC3]->XferHalfCpltCallback = TIM_DMADelayPulseHalfCplt;
1804:Drivers/STM32F7xx_HAL_Driver/Src/stm32f7xx_hal_tim.c **** 
1805:Drivers/STM32F7xx_HAL_Driver/Src/stm32f7xx_hal_tim.c ****       /* Set the DMA error callback */
1806:Drivers/STM32F7xx_HAL_Driver/Src/stm32f7xx_hal_tim.c ****       htim->hdma[TIM_DMA_ID_CC3]->XferErrorCallback = TIM_DMAError ;
1807:Drivers/STM32F7xx_HAL_Driver/Src/stm32f7xx_hal_tim.c **** 
1808:Drivers/STM32F7xx_HAL_Driver/Src/stm32f7xx_hal_tim.c ****       /* Enable the DMA stream */
1809:Drivers/STM32F7xx_HAL_Driver/Src/stm32f7xx_hal_tim.c ****       if (HAL_DMA_Start_IT(htim->hdma[TIM_DMA_ID_CC3], (uint32_t)pData, (uint32_t)&htim->Instance->
1810:Drivers/STM32F7xx_HAL_Driver/Src/stm32f7xx_hal_tim.c ****                            Length) != HAL_OK)
1811:Drivers/STM32F7xx_HAL_Driver/Src/stm32f7xx_hal_tim.c ****       {
1812:Drivers/STM32F7xx_HAL_Driver/Src/stm32f7xx_hal_tim.c ****         /* Return error status */
1813:Drivers/STM32F7xx_HAL_Driver/Src/stm32f7xx_hal_tim.c ****         return HAL_ERROR;
1814:Drivers/STM32F7xx_HAL_Driver/Src/stm32f7xx_hal_tim.c ****       }
1815:Drivers/STM32F7xx_HAL_Driver/Src/stm32f7xx_hal_tim.c ****       /* Enable the TIM Output Capture/Compare 3 request */
1816:Drivers/STM32F7xx_HAL_Driver/Src/stm32f7xx_hal_tim.c ****       __HAL_TIM_ENABLE_DMA(htim, TIM_DMA_CC3);
1817:Drivers/STM32F7xx_HAL_Driver/Src/stm32f7xx_hal_tim.c ****       break;
1818:Drivers/STM32F7xx_HAL_Driver/Src/stm32f7xx_hal_tim.c ****     }
1819:Drivers/STM32F7xx_HAL_Driver/Src/stm32f7xx_hal_tim.c **** 
1820:Drivers/STM32F7xx_HAL_Driver/Src/stm32f7xx_hal_tim.c ****     case TIM_CHANNEL_4:
1821:Drivers/STM32F7xx_HAL_Driver/Src/stm32f7xx_hal_tim.c ****     {
1822:Drivers/STM32F7xx_HAL_Driver/Src/stm32f7xx_hal_tim.c ****       /* Set the DMA compare callbacks */
1823:Drivers/STM32F7xx_HAL_Driver/Src/stm32f7xx_hal_tim.c ****       htim->hdma[TIM_DMA_ID_CC4]->XferCpltCallback = TIM_DMADelayPulseCplt;
1824:Drivers/STM32F7xx_HAL_Driver/Src/stm32f7xx_hal_tim.c ****       htim->hdma[TIM_DMA_ID_CC4]->XferHalfCpltCallback = TIM_DMADelayPulseHalfCplt;
1825:Drivers/STM32F7xx_HAL_Driver/Src/stm32f7xx_hal_tim.c **** 
1826:Drivers/STM32F7xx_HAL_Driver/Src/stm32f7xx_hal_tim.c ****       /* Set the DMA error callback */
1827:Drivers/STM32F7xx_HAL_Driver/Src/stm32f7xx_hal_tim.c ****       htim->hdma[TIM_DMA_ID_CC4]->XferErrorCallback = TIM_DMAError ;
1828:Drivers/STM32F7xx_HAL_Driver/Src/stm32f7xx_hal_tim.c **** 
1829:Drivers/STM32F7xx_HAL_Driver/Src/stm32f7xx_hal_tim.c ****       /* Enable the DMA stream */
1830:Drivers/STM32F7xx_HAL_Driver/Src/stm32f7xx_hal_tim.c ****       if (HAL_DMA_Start_IT(htim->hdma[TIM_DMA_ID_CC4], (uint32_t)pData, (uint32_t)&htim->Instance->
1831:Drivers/STM32F7xx_HAL_Driver/Src/stm32f7xx_hal_tim.c ****                            Length) != HAL_OK)
1832:Drivers/STM32F7xx_HAL_Driver/Src/stm32f7xx_hal_tim.c ****       {
1833:Drivers/STM32F7xx_HAL_Driver/Src/stm32f7xx_hal_tim.c ****         /* Return error status */
1834:Drivers/STM32F7xx_HAL_Driver/Src/stm32f7xx_hal_tim.c ****         return HAL_ERROR;
1835:Drivers/STM32F7xx_HAL_Driver/Src/stm32f7xx_hal_tim.c ****       }
1836:Drivers/STM32F7xx_HAL_Driver/Src/stm32f7xx_hal_tim.c ****       /* Enable the TIM Capture/Compare 4 DMA request */
1837:Drivers/STM32F7xx_HAL_Driver/Src/stm32f7xx_hal_tim.c ****       __HAL_TIM_ENABLE_DMA(htim, TIM_DMA_CC4);
1838:Drivers/STM32F7xx_HAL_Driver/Src/stm32f7xx_hal_tim.c ****       break;
1839:Drivers/STM32F7xx_HAL_Driver/Src/stm32f7xx_hal_tim.c ****     }
1840:Drivers/STM32F7xx_HAL_Driver/Src/stm32f7xx_hal_tim.c **** 
1841:Drivers/STM32F7xx_HAL_Driver/Src/stm32f7xx_hal_tim.c ****     default:
1842:Drivers/STM32F7xx_HAL_Driver/Src/stm32f7xx_hal_tim.c ****       status = HAL_ERROR;
1843:Drivers/STM32F7xx_HAL_Driver/Src/stm32f7xx_hal_tim.c ****       break;
1844:Drivers/STM32F7xx_HAL_Driver/Src/stm32f7xx_hal_tim.c ****   }
1845:Drivers/STM32F7xx_HAL_Driver/Src/stm32f7xx_hal_tim.c **** 
1846:Drivers/STM32F7xx_HAL_Driver/Src/stm32f7xx_hal_tim.c ****   if (status == HAL_OK)
1847:Drivers/STM32F7xx_HAL_Driver/Src/stm32f7xx_hal_tim.c ****   {
1848:Drivers/STM32F7xx_HAL_Driver/Src/stm32f7xx_hal_tim.c ****     /* Enable the Capture compare channel */
1849:Drivers/STM32F7xx_HAL_Driver/Src/stm32f7xx_hal_tim.c ****     TIM_CCxChannelCmd(htim->Instance, Channel, TIM_CCx_ENABLE);
1850:Drivers/STM32F7xx_HAL_Driver/Src/stm32f7xx_hal_tim.c **** 
1851:Drivers/STM32F7xx_HAL_Driver/Src/stm32f7xx_hal_tim.c ****     if (IS_TIM_BREAK_INSTANCE(htim->Instance) != RESET)
1852:Drivers/STM32F7xx_HAL_Driver/Src/stm32f7xx_hal_tim.c ****     {
1853:Drivers/STM32F7xx_HAL_Driver/Src/stm32f7xx_hal_tim.c ****       /* Enable the main output */
ARM GAS  /tmp/ccxnnoCQ.s 			page 36


1854:Drivers/STM32F7xx_HAL_Driver/Src/stm32f7xx_hal_tim.c ****       __HAL_TIM_MOE_ENABLE(htim);
1855:Drivers/STM32F7xx_HAL_Driver/Src/stm32f7xx_hal_tim.c ****     }
1856:Drivers/STM32F7xx_HAL_Driver/Src/stm32f7xx_hal_tim.c **** 
1857:Drivers/STM32F7xx_HAL_Driver/Src/stm32f7xx_hal_tim.c ****     /* Enable the Peripheral, except in trigger mode where enable is automatically done with trigge
1858:Drivers/STM32F7xx_HAL_Driver/Src/stm32f7xx_hal_tim.c ****     if (IS_TIM_SLAVE_INSTANCE(htim->Instance))
1859:Drivers/STM32F7xx_HAL_Driver/Src/stm32f7xx_hal_tim.c ****     {
1860:Drivers/STM32F7xx_HAL_Driver/Src/stm32f7xx_hal_tim.c ****       tmpsmcr = htim->Instance->SMCR & TIM_SMCR_SMS;
1861:Drivers/STM32F7xx_HAL_Driver/Src/stm32f7xx_hal_tim.c ****       if (!IS_TIM_SLAVEMODE_TRIGGER_ENABLED(tmpsmcr))
1862:Drivers/STM32F7xx_HAL_Driver/Src/stm32f7xx_hal_tim.c ****       {
1863:Drivers/STM32F7xx_HAL_Driver/Src/stm32f7xx_hal_tim.c ****         __HAL_TIM_ENABLE(htim);
1864:Drivers/STM32F7xx_HAL_Driver/Src/stm32f7xx_hal_tim.c ****       }
1865:Drivers/STM32F7xx_HAL_Driver/Src/stm32f7xx_hal_tim.c ****     }
1866:Drivers/STM32F7xx_HAL_Driver/Src/stm32f7xx_hal_tim.c ****     else
1867:Drivers/STM32F7xx_HAL_Driver/Src/stm32f7xx_hal_tim.c ****     {
1868:Drivers/STM32F7xx_HAL_Driver/Src/stm32f7xx_hal_tim.c ****       __HAL_TIM_ENABLE(htim);
1869:Drivers/STM32F7xx_HAL_Driver/Src/stm32f7xx_hal_tim.c ****     }
1870:Drivers/STM32F7xx_HAL_Driver/Src/stm32f7xx_hal_tim.c ****   }
1871:Drivers/STM32F7xx_HAL_Driver/Src/stm32f7xx_hal_tim.c **** 
1872:Drivers/STM32F7xx_HAL_Driver/Src/stm32f7xx_hal_tim.c ****   /* Return function status */
1873:Drivers/STM32F7xx_HAL_Driver/Src/stm32f7xx_hal_tim.c ****   return status;
1874:Drivers/STM32F7xx_HAL_Driver/Src/stm32f7xx_hal_tim.c **** }
1875:Drivers/STM32F7xx_HAL_Driver/Src/stm32f7xx_hal_tim.c **** 
1876:Drivers/STM32F7xx_HAL_Driver/Src/stm32f7xx_hal_tim.c **** /**
1877:Drivers/STM32F7xx_HAL_Driver/Src/stm32f7xx_hal_tim.c ****   * @brief  Stops the TIM PWM signal generation in DMA mode.
1878:Drivers/STM32F7xx_HAL_Driver/Src/stm32f7xx_hal_tim.c ****   * @param  htim TIM PWM handle
1879:Drivers/STM32F7xx_HAL_Driver/Src/stm32f7xx_hal_tim.c ****   * @param  Channel TIM Channels to be disabled
1880:Drivers/STM32F7xx_HAL_Driver/Src/stm32f7xx_hal_tim.c ****   *          This parameter can be one of the following values:
1881:Drivers/STM32F7xx_HAL_Driver/Src/stm32f7xx_hal_tim.c ****   *            @arg TIM_CHANNEL_1: TIM Channel 1 selected
1882:Drivers/STM32F7xx_HAL_Driver/Src/stm32f7xx_hal_tim.c ****   *            @arg TIM_CHANNEL_2: TIM Channel 2 selected
1883:Drivers/STM32F7xx_HAL_Driver/Src/stm32f7xx_hal_tim.c ****   *            @arg TIM_CHANNEL_3: TIM Channel 3 selected
1884:Drivers/STM32F7xx_HAL_Driver/Src/stm32f7xx_hal_tim.c ****   *            @arg TIM_CHANNEL_4: TIM Channel 4 selected
1885:Drivers/STM32F7xx_HAL_Driver/Src/stm32f7xx_hal_tim.c ****   * @retval HAL status
1886:Drivers/STM32F7xx_HAL_Driver/Src/stm32f7xx_hal_tim.c ****   */
1887:Drivers/STM32F7xx_HAL_Driver/Src/stm32f7xx_hal_tim.c **** HAL_StatusTypeDef HAL_TIM_PWM_Stop_DMA(TIM_HandleTypeDef *htim, uint32_t Channel)
1888:Drivers/STM32F7xx_HAL_Driver/Src/stm32f7xx_hal_tim.c **** {
1889:Drivers/STM32F7xx_HAL_Driver/Src/stm32f7xx_hal_tim.c ****   HAL_StatusTypeDef status = HAL_OK;
1890:Drivers/STM32F7xx_HAL_Driver/Src/stm32f7xx_hal_tim.c **** 
1891:Drivers/STM32F7xx_HAL_Driver/Src/stm32f7xx_hal_tim.c ****   /* Check the parameters */
1892:Drivers/STM32F7xx_HAL_Driver/Src/stm32f7xx_hal_tim.c ****   assert_param(IS_TIM_CCX_INSTANCE(htim->Instance, Channel));
1893:Drivers/STM32F7xx_HAL_Driver/Src/stm32f7xx_hal_tim.c **** 
1894:Drivers/STM32F7xx_HAL_Driver/Src/stm32f7xx_hal_tim.c ****   switch (Channel)
1895:Drivers/STM32F7xx_HAL_Driver/Src/stm32f7xx_hal_tim.c ****   {
1896:Drivers/STM32F7xx_HAL_Driver/Src/stm32f7xx_hal_tim.c ****     case TIM_CHANNEL_1:
1897:Drivers/STM32F7xx_HAL_Driver/Src/stm32f7xx_hal_tim.c ****     {
1898:Drivers/STM32F7xx_HAL_Driver/Src/stm32f7xx_hal_tim.c ****       /* Disable the TIM Capture/Compare 1 DMA request */
1899:Drivers/STM32F7xx_HAL_Driver/Src/stm32f7xx_hal_tim.c ****       __HAL_TIM_DISABLE_DMA(htim, TIM_DMA_CC1);
1900:Drivers/STM32F7xx_HAL_Driver/Src/stm32f7xx_hal_tim.c ****       (void)HAL_DMA_Abort_IT(htim->hdma[TIM_DMA_ID_CC1]);
1901:Drivers/STM32F7xx_HAL_Driver/Src/stm32f7xx_hal_tim.c ****       break;
1902:Drivers/STM32F7xx_HAL_Driver/Src/stm32f7xx_hal_tim.c ****     }
1903:Drivers/STM32F7xx_HAL_Driver/Src/stm32f7xx_hal_tim.c **** 
1904:Drivers/STM32F7xx_HAL_Driver/Src/stm32f7xx_hal_tim.c ****     case TIM_CHANNEL_2:
1905:Drivers/STM32F7xx_HAL_Driver/Src/stm32f7xx_hal_tim.c ****     {
1906:Drivers/STM32F7xx_HAL_Driver/Src/stm32f7xx_hal_tim.c ****       /* Disable the TIM Capture/Compare 2 DMA request */
1907:Drivers/STM32F7xx_HAL_Driver/Src/stm32f7xx_hal_tim.c ****       __HAL_TIM_DISABLE_DMA(htim, TIM_DMA_CC2);
1908:Drivers/STM32F7xx_HAL_Driver/Src/stm32f7xx_hal_tim.c ****       (void)HAL_DMA_Abort_IT(htim->hdma[TIM_DMA_ID_CC2]);
1909:Drivers/STM32F7xx_HAL_Driver/Src/stm32f7xx_hal_tim.c ****       break;
1910:Drivers/STM32F7xx_HAL_Driver/Src/stm32f7xx_hal_tim.c ****     }
ARM GAS  /tmp/ccxnnoCQ.s 			page 37


1911:Drivers/STM32F7xx_HAL_Driver/Src/stm32f7xx_hal_tim.c **** 
1912:Drivers/STM32F7xx_HAL_Driver/Src/stm32f7xx_hal_tim.c ****     case TIM_CHANNEL_3:
1913:Drivers/STM32F7xx_HAL_Driver/Src/stm32f7xx_hal_tim.c ****     {
1914:Drivers/STM32F7xx_HAL_Driver/Src/stm32f7xx_hal_tim.c ****       /* Disable the TIM Capture/Compare 3 DMA request */
1915:Drivers/STM32F7xx_HAL_Driver/Src/stm32f7xx_hal_tim.c ****       __HAL_TIM_DISABLE_DMA(htim, TIM_DMA_CC3);
1916:Drivers/STM32F7xx_HAL_Driver/Src/stm32f7xx_hal_tim.c ****       (void)HAL_DMA_Abort_IT(htim->hdma[TIM_DMA_ID_CC3]);
1917:Drivers/STM32F7xx_HAL_Driver/Src/stm32f7xx_hal_tim.c ****       break;
1918:Drivers/STM32F7xx_HAL_Driver/Src/stm32f7xx_hal_tim.c ****     }
1919:Drivers/STM32F7xx_HAL_Driver/Src/stm32f7xx_hal_tim.c **** 
1920:Drivers/STM32F7xx_HAL_Driver/Src/stm32f7xx_hal_tim.c ****     case TIM_CHANNEL_4:
1921:Drivers/STM32F7xx_HAL_Driver/Src/stm32f7xx_hal_tim.c ****     {
1922:Drivers/STM32F7xx_HAL_Driver/Src/stm32f7xx_hal_tim.c ****       /* Disable the TIM Capture/Compare 4 interrupt */
1923:Drivers/STM32F7xx_HAL_Driver/Src/stm32f7xx_hal_tim.c ****       __HAL_TIM_DISABLE_DMA(htim, TIM_DMA_CC4);
1924:Drivers/STM32F7xx_HAL_Driver/Src/stm32f7xx_hal_tim.c ****       (void)HAL_DMA_Abort_IT(htim->hdma[TIM_DMA_ID_CC4]);
1925:Drivers/STM32F7xx_HAL_Driver/Src/stm32f7xx_hal_tim.c ****       break;
1926:Drivers/STM32F7xx_HAL_Driver/Src/stm32f7xx_hal_tim.c ****     }
1927:Drivers/STM32F7xx_HAL_Driver/Src/stm32f7xx_hal_tim.c **** 
1928:Drivers/STM32F7xx_HAL_Driver/Src/stm32f7xx_hal_tim.c ****     default:
1929:Drivers/STM32F7xx_HAL_Driver/Src/stm32f7xx_hal_tim.c ****       status = HAL_ERROR;
1930:Drivers/STM32F7xx_HAL_Driver/Src/stm32f7xx_hal_tim.c ****       break;
1931:Drivers/STM32F7xx_HAL_Driver/Src/stm32f7xx_hal_tim.c ****   }
1932:Drivers/STM32F7xx_HAL_Driver/Src/stm32f7xx_hal_tim.c **** 
1933:Drivers/STM32F7xx_HAL_Driver/Src/stm32f7xx_hal_tim.c ****   if (status == HAL_OK)
1934:Drivers/STM32F7xx_HAL_Driver/Src/stm32f7xx_hal_tim.c ****   {
1935:Drivers/STM32F7xx_HAL_Driver/Src/stm32f7xx_hal_tim.c ****     /* Disable the Capture compare channel */
1936:Drivers/STM32F7xx_HAL_Driver/Src/stm32f7xx_hal_tim.c ****     TIM_CCxChannelCmd(htim->Instance, Channel, TIM_CCx_DISABLE);
1937:Drivers/STM32F7xx_HAL_Driver/Src/stm32f7xx_hal_tim.c **** 
1938:Drivers/STM32F7xx_HAL_Driver/Src/stm32f7xx_hal_tim.c ****     if (IS_TIM_BREAK_INSTANCE(htim->Instance) != RESET)
1939:Drivers/STM32F7xx_HAL_Driver/Src/stm32f7xx_hal_tim.c ****     {
1940:Drivers/STM32F7xx_HAL_Driver/Src/stm32f7xx_hal_tim.c ****       /* Disable the Main Output */
1941:Drivers/STM32F7xx_HAL_Driver/Src/stm32f7xx_hal_tim.c ****       __HAL_TIM_MOE_DISABLE(htim);
1942:Drivers/STM32F7xx_HAL_Driver/Src/stm32f7xx_hal_tim.c ****     }
1943:Drivers/STM32F7xx_HAL_Driver/Src/stm32f7xx_hal_tim.c **** 
1944:Drivers/STM32F7xx_HAL_Driver/Src/stm32f7xx_hal_tim.c ****     /* Disable the Peripheral */
1945:Drivers/STM32F7xx_HAL_Driver/Src/stm32f7xx_hal_tim.c ****     __HAL_TIM_DISABLE(htim);
1946:Drivers/STM32F7xx_HAL_Driver/Src/stm32f7xx_hal_tim.c **** 
1947:Drivers/STM32F7xx_HAL_Driver/Src/stm32f7xx_hal_tim.c ****     /* Set the TIM channel state */
1948:Drivers/STM32F7xx_HAL_Driver/Src/stm32f7xx_hal_tim.c ****     TIM_CHANNEL_STATE_SET(htim, Channel, HAL_TIM_CHANNEL_STATE_READY);
1949:Drivers/STM32F7xx_HAL_Driver/Src/stm32f7xx_hal_tim.c ****   }
1950:Drivers/STM32F7xx_HAL_Driver/Src/stm32f7xx_hal_tim.c **** 
1951:Drivers/STM32F7xx_HAL_Driver/Src/stm32f7xx_hal_tim.c ****   /* Return function status */
1952:Drivers/STM32F7xx_HAL_Driver/Src/stm32f7xx_hal_tim.c ****   return status;
1953:Drivers/STM32F7xx_HAL_Driver/Src/stm32f7xx_hal_tim.c **** }
1954:Drivers/STM32F7xx_HAL_Driver/Src/stm32f7xx_hal_tim.c **** 
1955:Drivers/STM32F7xx_HAL_Driver/Src/stm32f7xx_hal_tim.c **** /**
1956:Drivers/STM32F7xx_HAL_Driver/Src/stm32f7xx_hal_tim.c ****   * @}
1957:Drivers/STM32F7xx_HAL_Driver/Src/stm32f7xx_hal_tim.c ****   */
1958:Drivers/STM32F7xx_HAL_Driver/Src/stm32f7xx_hal_tim.c **** 
1959:Drivers/STM32F7xx_HAL_Driver/Src/stm32f7xx_hal_tim.c **** /** @defgroup TIM_Exported_Functions_Group4 TIM Input Capture functions
1960:Drivers/STM32F7xx_HAL_Driver/Src/stm32f7xx_hal_tim.c ****   *  @brief    TIM Input Capture functions
1961:Drivers/STM32F7xx_HAL_Driver/Src/stm32f7xx_hal_tim.c ****   *
1962:Drivers/STM32F7xx_HAL_Driver/Src/stm32f7xx_hal_tim.c **** @verbatim
1963:Drivers/STM32F7xx_HAL_Driver/Src/stm32f7xx_hal_tim.c ****   ==============================================================================
1964:Drivers/STM32F7xx_HAL_Driver/Src/stm32f7xx_hal_tim.c ****               ##### TIM Input Capture functions #####
1965:Drivers/STM32F7xx_HAL_Driver/Src/stm32f7xx_hal_tim.c ****   ==============================================================================
1966:Drivers/STM32F7xx_HAL_Driver/Src/stm32f7xx_hal_tim.c ****  [..]
1967:Drivers/STM32F7xx_HAL_Driver/Src/stm32f7xx_hal_tim.c ****    This section provides functions allowing to:
ARM GAS  /tmp/ccxnnoCQ.s 			page 38


1968:Drivers/STM32F7xx_HAL_Driver/Src/stm32f7xx_hal_tim.c ****    (+) Initialize and configure the TIM Input Capture.
1969:Drivers/STM32F7xx_HAL_Driver/Src/stm32f7xx_hal_tim.c ****    (+) De-initialize the TIM Input Capture.
1970:Drivers/STM32F7xx_HAL_Driver/Src/stm32f7xx_hal_tim.c ****    (+) Start the TIM Input Capture.
1971:Drivers/STM32F7xx_HAL_Driver/Src/stm32f7xx_hal_tim.c ****    (+) Stop the TIM Input Capture.
1972:Drivers/STM32F7xx_HAL_Driver/Src/stm32f7xx_hal_tim.c ****    (+) Start the TIM Input Capture and enable interrupt.
1973:Drivers/STM32F7xx_HAL_Driver/Src/stm32f7xx_hal_tim.c ****    (+) Stop the TIM Input Capture and disable interrupt.
1974:Drivers/STM32F7xx_HAL_Driver/Src/stm32f7xx_hal_tim.c ****    (+) Start the TIM Input Capture and enable DMA transfer.
1975:Drivers/STM32F7xx_HAL_Driver/Src/stm32f7xx_hal_tim.c ****    (+) Stop the TIM Input Capture and disable DMA transfer.
1976:Drivers/STM32F7xx_HAL_Driver/Src/stm32f7xx_hal_tim.c **** 
1977:Drivers/STM32F7xx_HAL_Driver/Src/stm32f7xx_hal_tim.c **** @endverbatim
1978:Drivers/STM32F7xx_HAL_Driver/Src/stm32f7xx_hal_tim.c ****   * @{
1979:Drivers/STM32F7xx_HAL_Driver/Src/stm32f7xx_hal_tim.c ****   */
1980:Drivers/STM32F7xx_HAL_Driver/Src/stm32f7xx_hal_tim.c **** /**
1981:Drivers/STM32F7xx_HAL_Driver/Src/stm32f7xx_hal_tim.c ****   * @brief  Initializes the TIM Input Capture Time base according to the specified
1982:Drivers/STM32F7xx_HAL_Driver/Src/stm32f7xx_hal_tim.c ****   *         parameters in the TIM_HandleTypeDef and initializes the associated handle.
1983:Drivers/STM32F7xx_HAL_Driver/Src/stm32f7xx_hal_tim.c ****   * @note   Switching from Center Aligned counter mode to Edge counter mode (or reverse)
1984:Drivers/STM32F7xx_HAL_Driver/Src/stm32f7xx_hal_tim.c ****   *         requires a timer reset to avoid unexpected direction
1985:Drivers/STM32F7xx_HAL_Driver/Src/stm32f7xx_hal_tim.c ****   *         due to DIR bit readonly in center aligned mode.
1986:Drivers/STM32F7xx_HAL_Driver/Src/stm32f7xx_hal_tim.c ****   *         Ex: call @ref HAL_TIM_IC_DeInit() before HAL_TIM_IC_Init()
1987:Drivers/STM32F7xx_HAL_Driver/Src/stm32f7xx_hal_tim.c ****   * @param  htim TIM Input Capture handle
1988:Drivers/STM32F7xx_HAL_Driver/Src/stm32f7xx_hal_tim.c ****   * @retval HAL status
1989:Drivers/STM32F7xx_HAL_Driver/Src/stm32f7xx_hal_tim.c ****   */
1990:Drivers/STM32F7xx_HAL_Driver/Src/stm32f7xx_hal_tim.c **** HAL_StatusTypeDef HAL_TIM_IC_Init(TIM_HandleTypeDef *htim)
1991:Drivers/STM32F7xx_HAL_Driver/Src/stm32f7xx_hal_tim.c **** {
1992:Drivers/STM32F7xx_HAL_Driver/Src/stm32f7xx_hal_tim.c ****   /* Check the TIM handle allocation */
1993:Drivers/STM32F7xx_HAL_Driver/Src/stm32f7xx_hal_tim.c ****   if (htim == NULL)
1994:Drivers/STM32F7xx_HAL_Driver/Src/stm32f7xx_hal_tim.c ****   {
1995:Drivers/STM32F7xx_HAL_Driver/Src/stm32f7xx_hal_tim.c ****     return HAL_ERROR;
1996:Drivers/STM32F7xx_HAL_Driver/Src/stm32f7xx_hal_tim.c ****   }
1997:Drivers/STM32F7xx_HAL_Driver/Src/stm32f7xx_hal_tim.c **** 
1998:Drivers/STM32F7xx_HAL_Driver/Src/stm32f7xx_hal_tim.c ****   /* Check the parameters */
1999:Drivers/STM32F7xx_HAL_Driver/Src/stm32f7xx_hal_tim.c ****   assert_param(IS_TIM_INSTANCE(htim->Instance));
2000:Drivers/STM32F7xx_HAL_Driver/Src/stm32f7xx_hal_tim.c ****   assert_param(IS_TIM_COUNTER_MODE(htim->Init.CounterMode));
2001:Drivers/STM32F7xx_HAL_Driver/Src/stm32f7xx_hal_tim.c ****   assert_param(IS_TIM_CLOCKDIVISION_DIV(htim->Init.ClockDivision));
2002:Drivers/STM32F7xx_HAL_Driver/Src/stm32f7xx_hal_tim.c ****   assert_param(IS_TIM_PERIOD(htim, htim->Init.Period));
2003:Drivers/STM32F7xx_HAL_Driver/Src/stm32f7xx_hal_tim.c ****   assert_param(IS_TIM_AUTORELOAD_PRELOAD(htim->Init.AutoReloadPreload));
2004:Drivers/STM32F7xx_HAL_Driver/Src/stm32f7xx_hal_tim.c **** 
2005:Drivers/STM32F7xx_HAL_Driver/Src/stm32f7xx_hal_tim.c ****   if (htim->State == HAL_TIM_STATE_RESET)
2006:Drivers/STM32F7xx_HAL_Driver/Src/stm32f7xx_hal_tim.c ****   {
2007:Drivers/STM32F7xx_HAL_Driver/Src/stm32f7xx_hal_tim.c ****     /* Allocate lock resource and initialize it */
2008:Drivers/STM32F7xx_HAL_Driver/Src/stm32f7xx_hal_tim.c ****     htim->Lock = HAL_UNLOCKED;
2009:Drivers/STM32F7xx_HAL_Driver/Src/stm32f7xx_hal_tim.c **** 
2010:Drivers/STM32F7xx_HAL_Driver/Src/stm32f7xx_hal_tim.c **** #if (USE_HAL_TIM_REGISTER_CALLBACKS == 1)
2011:Drivers/STM32F7xx_HAL_Driver/Src/stm32f7xx_hal_tim.c ****     /* Reset interrupt callbacks to legacy weak callbacks */
2012:Drivers/STM32F7xx_HAL_Driver/Src/stm32f7xx_hal_tim.c ****     TIM_ResetCallback(htim);
2013:Drivers/STM32F7xx_HAL_Driver/Src/stm32f7xx_hal_tim.c **** 
2014:Drivers/STM32F7xx_HAL_Driver/Src/stm32f7xx_hal_tim.c ****     if (htim->IC_MspInitCallback == NULL)
2015:Drivers/STM32F7xx_HAL_Driver/Src/stm32f7xx_hal_tim.c ****     {
2016:Drivers/STM32F7xx_HAL_Driver/Src/stm32f7xx_hal_tim.c ****       htim->IC_MspInitCallback = HAL_TIM_IC_MspInit;
2017:Drivers/STM32F7xx_HAL_Driver/Src/stm32f7xx_hal_tim.c ****     }
2018:Drivers/STM32F7xx_HAL_Driver/Src/stm32f7xx_hal_tim.c ****     /* Init the low level hardware : GPIO, CLOCK, NVIC */
2019:Drivers/STM32F7xx_HAL_Driver/Src/stm32f7xx_hal_tim.c ****     htim->IC_MspInitCallback(htim);
2020:Drivers/STM32F7xx_HAL_Driver/Src/stm32f7xx_hal_tim.c **** #else
2021:Drivers/STM32F7xx_HAL_Driver/Src/stm32f7xx_hal_tim.c ****     /* Init the low level hardware : GPIO, CLOCK, NVIC and DMA */
2022:Drivers/STM32F7xx_HAL_Driver/Src/stm32f7xx_hal_tim.c ****     HAL_TIM_IC_MspInit(htim);
2023:Drivers/STM32F7xx_HAL_Driver/Src/stm32f7xx_hal_tim.c **** #endif /* USE_HAL_TIM_REGISTER_CALLBACKS */
2024:Drivers/STM32F7xx_HAL_Driver/Src/stm32f7xx_hal_tim.c ****   }
ARM GAS  /tmp/ccxnnoCQ.s 			page 39


2025:Drivers/STM32F7xx_HAL_Driver/Src/stm32f7xx_hal_tim.c **** 
2026:Drivers/STM32F7xx_HAL_Driver/Src/stm32f7xx_hal_tim.c ****   /* Set the TIM state */
2027:Drivers/STM32F7xx_HAL_Driver/Src/stm32f7xx_hal_tim.c ****   htim->State = HAL_TIM_STATE_BUSY;
2028:Drivers/STM32F7xx_HAL_Driver/Src/stm32f7xx_hal_tim.c **** 
2029:Drivers/STM32F7xx_HAL_Driver/Src/stm32f7xx_hal_tim.c ****   /* Init the base time for the input capture */
2030:Drivers/STM32F7xx_HAL_Driver/Src/stm32f7xx_hal_tim.c ****   TIM_Base_SetConfig(htim->Instance, &htim->Init);
2031:Drivers/STM32F7xx_HAL_Driver/Src/stm32f7xx_hal_tim.c **** 
2032:Drivers/STM32F7xx_HAL_Driver/Src/stm32f7xx_hal_tim.c ****   /* Initialize the DMA burst operation state */
2033:Drivers/STM32F7xx_HAL_Driver/Src/stm32f7xx_hal_tim.c ****   htim->DMABurstState = HAL_DMA_BURST_STATE_READY;
2034:Drivers/STM32F7xx_HAL_Driver/Src/stm32f7xx_hal_tim.c **** 
2035:Drivers/STM32F7xx_HAL_Driver/Src/stm32f7xx_hal_tim.c ****   /* Initialize the TIM channels state */
2036:Drivers/STM32F7xx_HAL_Driver/Src/stm32f7xx_hal_tim.c ****   TIM_CHANNEL_STATE_SET_ALL(htim, HAL_TIM_CHANNEL_STATE_READY);
2037:Drivers/STM32F7xx_HAL_Driver/Src/stm32f7xx_hal_tim.c ****   TIM_CHANNEL_N_STATE_SET_ALL(htim, HAL_TIM_CHANNEL_STATE_READY);
2038:Drivers/STM32F7xx_HAL_Driver/Src/stm32f7xx_hal_tim.c **** 
2039:Drivers/STM32F7xx_HAL_Driver/Src/stm32f7xx_hal_tim.c ****   /* Initialize the TIM state*/
2040:Drivers/STM32F7xx_HAL_Driver/Src/stm32f7xx_hal_tim.c ****   htim->State = HAL_TIM_STATE_READY;
2041:Drivers/STM32F7xx_HAL_Driver/Src/stm32f7xx_hal_tim.c **** 
2042:Drivers/STM32F7xx_HAL_Driver/Src/stm32f7xx_hal_tim.c ****   return HAL_OK;
2043:Drivers/STM32F7xx_HAL_Driver/Src/stm32f7xx_hal_tim.c **** }
2044:Drivers/STM32F7xx_HAL_Driver/Src/stm32f7xx_hal_tim.c **** 
2045:Drivers/STM32F7xx_HAL_Driver/Src/stm32f7xx_hal_tim.c **** /**
2046:Drivers/STM32F7xx_HAL_Driver/Src/stm32f7xx_hal_tim.c ****   * @brief  DeInitializes the TIM peripheral
2047:Drivers/STM32F7xx_HAL_Driver/Src/stm32f7xx_hal_tim.c ****   * @param  htim TIM Input Capture handle
2048:Drivers/STM32F7xx_HAL_Driver/Src/stm32f7xx_hal_tim.c ****   * @retval HAL status
2049:Drivers/STM32F7xx_HAL_Driver/Src/stm32f7xx_hal_tim.c ****   */
2050:Drivers/STM32F7xx_HAL_Driver/Src/stm32f7xx_hal_tim.c **** HAL_StatusTypeDef HAL_TIM_IC_DeInit(TIM_HandleTypeDef *htim)
2051:Drivers/STM32F7xx_HAL_Driver/Src/stm32f7xx_hal_tim.c **** {
2052:Drivers/STM32F7xx_HAL_Driver/Src/stm32f7xx_hal_tim.c ****   /* Check the parameters */
2053:Drivers/STM32F7xx_HAL_Driver/Src/stm32f7xx_hal_tim.c ****   assert_param(IS_TIM_INSTANCE(htim->Instance));
2054:Drivers/STM32F7xx_HAL_Driver/Src/stm32f7xx_hal_tim.c **** 
2055:Drivers/STM32F7xx_HAL_Driver/Src/stm32f7xx_hal_tim.c ****   htim->State = HAL_TIM_STATE_BUSY;
2056:Drivers/STM32F7xx_HAL_Driver/Src/stm32f7xx_hal_tim.c **** 
2057:Drivers/STM32F7xx_HAL_Driver/Src/stm32f7xx_hal_tim.c ****   /* Disable the TIM Peripheral Clock */
2058:Drivers/STM32F7xx_HAL_Driver/Src/stm32f7xx_hal_tim.c ****   __HAL_TIM_DISABLE(htim);
2059:Drivers/STM32F7xx_HAL_Driver/Src/stm32f7xx_hal_tim.c **** 
2060:Drivers/STM32F7xx_HAL_Driver/Src/stm32f7xx_hal_tim.c **** #if (USE_HAL_TIM_REGISTER_CALLBACKS == 1)
2061:Drivers/STM32F7xx_HAL_Driver/Src/stm32f7xx_hal_tim.c ****   if (htim->IC_MspDeInitCallback == NULL)
2062:Drivers/STM32F7xx_HAL_Driver/Src/stm32f7xx_hal_tim.c ****   {
2063:Drivers/STM32F7xx_HAL_Driver/Src/stm32f7xx_hal_tim.c ****     htim->IC_MspDeInitCallback = HAL_TIM_IC_MspDeInit;
2064:Drivers/STM32F7xx_HAL_Driver/Src/stm32f7xx_hal_tim.c ****   }
2065:Drivers/STM32F7xx_HAL_Driver/Src/stm32f7xx_hal_tim.c ****   /* DeInit the low level hardware */
2066:Drivers/STM32F7xx_HAL_Driver/Src/stm32f7xx_hal_tim.c ****   htim->IC_MspDeInitCallback(htim);
2067:Drivers/STM32F7xx_HAL_Driver/Src/stm32f7xx_hal_tim.c **** #else
2068:Drivers/STM32F7xx_HAL_Driver/Src/stm32f7xx_hal_tim.c ****   /* DeInit the low level hardware: GPIO, CLOCK, NVIC and DMA */
2069:Drivers/STM32F7xx_HAL_Driver/Src/stm32f7xx_hal_tim.c ****   HAL_TIM_IC_MspDeInit(htim);
2070:Drivers/STM32F7xx_HAL_Driver/Src/stm32f7xx_hal_tim.c **** #endif /* USE_HAL_TIM_REGISTER_CALLBACKS */
2071:Drivers/STM32F7xx_HAL_Driver/Src/stm32f7xx_hal_tim.c **** 
2072:Drivers/STM32F7xx_HAL_Driver/Src/stm32f7xx_hal_tim.c ****   /* Change the DMA burst operation state */
2073:Drivers/STM32F7xx_HAL_Driver/Src/stm32f7xx_hal_tim.c ****   htim->DMABurstState = HAL_DMA_BURST_STATE_RESET;
2074:Drivers/STM32F7xx_HAL_Driver/Src/stm32f7xx_hal_tim.c **** 
2075:Drivers/STM32F7xx_HAL_Driver/Src/stm32f7xx_hal_tim.c ****   /* Change the TIM channels state */
2076:Drivers/STM32F7xx_HAL_Driver/Src/stm32f7xx_hal_tim.c ****   TIM_CHANNEL_STATE_SET_ALL(htim, HAL_TIM_CHANNEL_STATE_RESET);
2077:Drivers/STM32F7xx_HAL_Driver/Src/stm32f7xx_hal_tim.c ****   TIM_CHANNEL_N_STATE_SET_ALL(htim, HAL_TIM_CHANNEL_STATE_RESET);
2078:Drivers/STM32F7xx_HAL_Driver/Src/stm32f7xx_hal_tim.c **** 
2079:Drivers/STM32F7xx_HAL_Driver/Src/stm32f7xx_hal_tim.c ****   /* Change TIM state */
2080:Drivers/STM32F7xx_HAL_Driver/Src/stm32f7xx_hal_tim.c ****   htim->State = HAL_TIM_STATE_RESET;
2081:Drivers/STM32F7xx_HAL_Driver/Src/stm32f7xx_hal_tim.c **** 
ARM GAS  /tmp/ccxnnoCQ.s 			page 40


2082:Drivers/STM32F7xx_HAL_Driver/Src/stm32f7xx_hal_tim.c ****   /* Release Lock */
2083:Drivers/STM32F7xx_HAL_Driver/Src/stm32f7xx_hal_tim.c ****   __HAL_UNLOCK(htim);
2084:Drivers/STM32F7xx_HAL_Driver/Src/stm32f7xx_hal_tim.c **** 
2085:Drivers/STM32F7xx_HAL_Driver/Src/stm32f7xx_hal_tim.c ****   return HAL_OK;
2086:Drivers/STM32F7xx_HAL_Driver/Src/stm32f7xx_hal_tim.c **** }
2087:Drivers/STM32F7xx_HAL_Driver/Src/stm32f7xx_hal_tim.c **** 
2088:Drivers/STM32F7xx_HAL_Driver/Src/stm32f7xx_hal_tim.c **** /**
2089:Drivers/STM32F7xx_HAL_Driver/Src/stm32f7xx_hal_tim.c ****   * @brief  Initializes the TIM Input Capture MSP.
2090:Drivers/STM32F7xx_HAL_Driver/Src/stm32f7xx_hal_tim.c ****   * @param  htim TIM Input Capture handle
2091:Drivers/STM32F7xx_HAL_Driver/Src/stm32f7xx_hal_tim.c ****   * @retval None
2092:Drivers/STM32F7xx_HAL_Driver/Src/stm32f7xx_hal_tim.c ****   */
2093:Drivers/STM32F7xx_HAL_Driver/Src/stm32f7xx_hal_tim.c **** __weak void HAL_TIM_IC_MspInit(TIM_HandleTypeDef *htim)
2094:Drivers/STM32F7xx_HAL_Driver/Src/stm32f7xx_hal_tim.c **** {
 156              		.loc 1 2094 1 is_stmt 1 view -0
 157              		.cfi_startproc
 158              		@ args = 0, pretend = 0, frame = 0
 159              		@ frame_needed = 0, uses_anonymous_args = 0
 160              		@ link register save eliminated.
2095:Drivers/STM32F7xx_HAL_Driver/Src/stm32f7xx_hal_tim.c ****   /* Prevent unused argument(s) compilation warning */
2096:Drivers/STM32F7xx_HAL_Driver/Src/stm32f7xx_hal_tim.c ****   UNUSED(htim);
 161              		.loc 1 2096 3 view .LVU19
2097:Drivers/STM32F7xx_HAL_Driver/Src/stm32f7xx_hal_tim.c **** 
2098:Drivers/STM32F7xx_HAL_Driver/Src/stm32f7xx_hal_tim.c ****   /* NOTE : This function should not be modified, when the callback is needed,
2099:Drivers/STM32F7xx_HAL_Driver/Src/stm32f7xx_hal_tim.c ****             the HAL_TIM_IC_MspInit could be implemented in the user file
2100:Drivers/STM32F7xx_HAL_Driver/Src/stm32f7xx_hal_tim.c ****    */
2101:Drivers/STM32F7xx_HAL_Driver/Src/stm32f7xx_hal_tim.c **** }
 162              		.loc 1 2101 1 is_stmt 0 view .LVU20
 163 0000 7047     		bx	lr
 164              		.cfi_endproc
 165              	.LFE173:
 167              		.section	.text.HAL_TIM_IC_MspDeInit,"ax",%progbits
 168              		.align	1
 169              		.weak	HAL_TIM_IC_MspDeInit
 170              		.syntax unified
 171              		.thumb
 172              		.thumb_func
 174              	HAL_TIM_IC_MspDeInit:
 175              	.LVL7:
 176              	.LFB174:
2102:Drivers/STM32F7xx_HAL_Driver/Src/stm32f7xx_hal_tim.c **** 
2103:Drivers/STM32F7xx_HAL_Driver/Src/stm32f7xx_hal_tim.c **** /**
2104:Drivers/STM32F7xx_HAL_Driver/Src/stm32f7xx_hal_tim.c ****   * @brief  DeInitializes TIM Input Capture MSP.
2105:Drivers/STM32F7xx_HAL_Driver/Src/stm32f7xx_hal_tim.c ****   * @param  htim TIM handle
2106:Drivers/STM32F7xx_HAL_Driver/Src/stm32f7xx_hal_tim.c ****   * @retval None
2107:Drivers/STM32F7xx_HAL_Driver/Src/stm32f7xx_hal_tim.c ****   */
2108:Drivers/STM32F7xx_HAL_Driver/Src/stm32f7xx_hal_tim.c **** __weak void HAL_TIM_IC_MspDeInit(TIM_HandleTypeDef *htim)
2109:Drivers/STM32F7xx_HAL_Driver/Src/stm32f7xx_hal_tim.c **** {
 177              		.loc 1 2109 1 is_stmt 1 view -0
 178              		.cfi_startproc
 179              		@ args = 0, pretend = 0, frame = 0
 180              		@ frame_needed = 0, uses_anonymous_args = 0
 181              		@ link register save eliminated.
2110:Drivers/STM32F7xx_HAL_Driver/Src/stm32f7xx_hal_tim.c ****   /* Prevent unused argument(s) compilation warning */
2111:Drivers/STM32F7xx_HAL_Driver/Src/stm32f7xx_hal_tim.c ****   UNUSED(htim);
 182              		.loc 1 2111 3 view .LVU22
2112:Drivers/STM32F7xx_HAL_Driver/Src/stm32f7xx_hal_tim.c **** 
2113:Drivers/STM32F7xx_HAL_Driver/Src/stm32f7xx_hal_tim.c ****   /* NOTE : This function should not be modified, when the callback is needed,
ARM GAS  /tmp/ccxnnoCQ.s 			page 41


2114:Drivers/STM32F7xx_HAL_Driver/Src/stm32f7xx_hal_tim.c ****             the HAL_TIM_IC_MspDeInit could be implemented in the user file
2115:Drivers/STM32F7xx_HAL_Driver/Src/stm32f7xx_hal_tim.c ****    */
2116:Drivers/STM32F7xx_HAL_Driver/Src/stm32f7xx_hal_tim.c **** }
 183              		.loc 1 2116 1 is_stmt 0 view .LVU23
 184 0000 7047     		bx	lr
 185              		.cfi_endproc
 186              	.LFE174:
 188              		.section	.text.HAL_TIM_OnePulse_MspInit,"ax",%progbits
 189              		.align	1
 190              		.weak	HAL_TIM_OnePulse_MspInit
 191              		.syntax unified
 192              		.thumb
 193              		.thumb_func
 195              	HAL_TIM_OnePulse_MspInit:
 196              	.LVL8:
 197              	.LFB183:
2117:Drivers/STM32F7xx_HAL_Driver/Src/stm32f7xx_hal_tim.c **** 
2118:Drivers/STM32F7xx_HAL_Driver/Src/stm32f7xx_hal_tim.c **** /**
2119:Drivers/STM32F7xx_HAL_Driver/Src/stm32f7xx_hal_tim.c ****   * @brief  Starts the TIM Input Capture measurement.
2120:Drivers/STM32F7xx_HAL_Driver/Src/stm32f7xx_hal_tim.c ****   * @param  htim TIM Input Capture handle
2121:Drivers/STM32F7xx_HAL_Driver/Src/stm32f7xx_hal_tim.c ****   * @param  Channel TIM Channels to be enabled
2122:Drivers/STM32F7xx_HAL_Driver/Src/stm32f7xx_hal_tim.c ****   *          This parameter can be one of the following values:
2123:Drivers/STM32F7xx_HAL_Driver/Src/stm32f7xx_hal_tim.c ****   *            @arg TIM_CHANNEL_1: TIM Channel 1 selected
2124:Drivers/STM32F7xx_HAL_Driver/Src/stm32f7xx_hal_tim.c ****   *            @arg TIM_CHANNEL_2: TIM Channel 2 selected
2125:Drivers/STM32F7xx_HAL_Driver/Src/stm32f7xx_hal_tim.c ****   *            @arg TIM_CHANNEL_3: TIM Channel 3 selected
2126:Drivers/STM32F7xx_HAL_Driver/Src/stm32f7xx_hal_tim.c ****   *            @arg TIM_CHANNEL_4: TIM Channel 4 selected
2127:Drivers/STM32F7xx_HAL_Driver/Src/stm32f7xx_hal_tim.c ****   * @retval HAL status
2128:Drivers/STM32F7xx_HAL_Driver/Src/stm32f7xx_hal_tim.c ****   */
2129:Drivers/STM32F7xx_HAL_Driver/Src/stm32f7xx_hal_tim.c **** HAL_StatusTypeDef HAL_TIM_IC_Start(TIM_HandleTypeDef *htim, uint32_t Channel)
2130:Drivers/STM32F7xx_HAL_Driver/Src/stm32f7xx_hal_tim.c **** {
2131:Drivers/STM32F7xx_HAL_Driver/Src/stm32f7xx_hal_tim.c ****   uint32_t tmpsmcr;
2132:Drivers/STM32F7xx_HAL_Driver/Src/stm32f7xx_hal_tim.c ****   HAL_TIM_ChannelStateTypeDef channel_state = TIM_CHANNEL_STATE_GET(htim, Channel);
2133:Drivers/STM32F7xx_HAL_Driver/Src/stm32f7xx_hal_tim.c ****   HAL_TIM_ChannelStateTypeDef complementary_channel_state = TIM_CHANNEL_N_STATE_GET(htim, Channel);
2134:Drivers/STM32F7xx_HAL_Driver/Src/stm32f7xx_hal_tim.c **** 
2135:Drivers/STM32F7xx_HAL_Driver/Src/stm32f7xx_hal_tim.c ****   /* Check the parameters */
2136:Drivers/STM32F7xx_HAL_Driver/Src/stm32f7xx_hal_tim.c ****   assert_param(IS_TIM_CCX_INSTANCE(htim->Instance, Channel));
2137:Drivers/STM32F7xx_HAL_Driver/Src/stm32f7xx_hal_tim.c **** 
2138:Drivers/STM32F7xx_HAL_Driver/Src/stm32f7xx_hal_tim.c ****   /* Check the TIM channel state */
2139:Drivers/STM32F7xx_HAL_Driver/Src/stm32f7xx_hal_tim.c ****   if ((channel_state != HAL_TIM_CHANNEL_STATE_READY)
2140:Drivers/STM32F7xx_HAL_Driver/Src/stm32f7xx_hal_tim.c ****       || (complementary_channel_state != HAL_TIM_CHANNEL_STATE_READY))
2141:Drivers/STM32F7xx_HAL_Driver/Src/stm32f7xx_hal_tim.c ****   {
2142:Drivers/STM32F7xx_HAL_Driver/Src/stm32f7xx_hal_tim.c ****     return HAL_ERROR;
2143:Drivers/STM32F7xx_HAL_Driver/Src/stm32f7xx_hal_tim.c ****   }
2144:Drivers/STM32F7xx_HAL_Driver/Src/stm32f7xx_hal_tim.c **** 
2145:Drivers/STM32F7xx_HAL_Driver/Src/stm32f7xx_hal_tim.c ****   /* Set the TIM channel state */
2146:Drivers/STM32F7xx_HAL_Driver/Src/stm32f7xx_hal_tim.c ****   TIM_CHANNEL_STATE_SET(htim, Channel, HAL_TIM_CHANNEL_STATE_BUSY);
2147:Drivers/STM32F7xx_HAL_Driver/Src/stm32f7xx_hal_tim.c ****   TIM_CHANNEL_N_STATE_SET(htim, Channel, HAL_TIM_CHANNEL_STATE_BUSY);
2148:Drivers/STM32F7xx_HAL_Driver/Src/stm32f7xx_hal_tim.c **** 
2149:Drivers/STM32F7xx_HAL_Driver/Src/stm32f7xx_hal_tim.c ****   /* Enable the Input Capture channel */
2150:Drivers/STM32F7xx_HAL_Driver/Src/stm32f7xx_hal_tim.c ****   TIM_CCxChannelCmd(htim->Instance, Channel, TIM_CCx_ENABLE);
2151:Drivers/STM32F7xx_HAL_Driver/Src/stm32f7xx_hal_tim.c **** 
2152:Drivers/STM32F7xx_HAL_Driver/Src/stm32f7xx_hal_tim.c ****   /* Enable the Peripheral, except in trigger mode where enable is automatically done with trigger 
2153:Drivers/STM32F7xx_HAL_Driver/Src/stm32f7xx_hal_tim.c ****   if (IS_TIM_SLAVE_INSTANCE(htim->Instance))
2154:Drivers/STM32F7xx_HAL_Driver/Src/stm32f7xx_hal_tim.c ****   {
2155:Drivers/STM32F7xx_HAL_Driver/Src/stm32f7xx_hal_tim.c ****     tmpsmcr = htim->Instance->SMCR & TIM_SMCR_SMS;
2156:Drivers/STM32F7xx_HAL_Driver/Src/stm32f7xx_hal_tim.c ****     if (!IS_TIM_SLAVEMODE_TRIGGER_ENABLED(tmpsmcr))
2157:Drivers/STM32F7xx_HAL_Driver/Src/stm32f7xx_hal_tim.c ****     {
ARM GAS  /tmp/ccxnnoCQ.s 			page 42


2158:Drivers/STM32F7xx_HAL_Driver/Src/stm32f7xx_hal_tim.c ****       __HAL_TIM_ENABLE(htim);
2159:Drivers/STM32F7xx_HAL_Driver/Src/stm32f7xx_hal_tim.c ****     }
2160:Drivers/STM32F7xx_HAL_Driver/Src/stm32f7xx_hal_tim.c ****   }
2161:Drivers/STM32F7xx_HAL_Driver/Src/stm32f7xx_hal_tim.c ****   else
2162:Drivers/STM32F7xx_HAL_Driver/Src/stm32f7xx_hal_tim.c ****   {
2163:Drivers/STM32F7xx_HAL_Driver/Src/stm32f7xx_hal_tim.c ****     __HAL_TIM_ENABLE(htim);
2164:Drivers/STM32F7xx_HAL_Driver/Src/stm32f7xx_hal_tim.c ****   }
2165:Drivers/STM32F7xx_HAL_Driver/Src/stm32f7xx_hal_tim.c **** 
2166:Drivers/STM32F7xx_HAL_Driver/Src/stm32f7xx_hal_tim.c ****   /* Return function status */
2167:Drivers/STM32F7xx_HAL_Driver/Src/stm32f7xx_hal_tim.c ****   return HAL_OK;
2168:Drivers/STM32F7xx_HAL_Driver/Src/stm32f7xx_hal_tim.c **** }
2169:Drivers/STM32F7xx_HAL_Driver/Src/stm32f7xx_hal_tim.c **** 
2170:Drivers/STM32F7xx_HAL_Driver/Src/stm32f7xx_hal_tim.c **** /**
2171:Drivers/STM32F7xx_HAL_Driver/Src/stm32f7xx_hal_tim.c ****   * @brief  Stops the TIM Input Capture measurement.
2172:Drivers/STM32F7xx_HAL_Driver/Src/stm32f7xx_hal_tim.c ****   * @param  htim TIM Input Capture handle
2173:Drivers/STM32F7xx_HAL_Driver/Src/stm32f7xx_hal_tim.c ****   * @param  Channel TIM Channels to be disabled
2174:Drivers/STM32F7xx_HAL_Driver/Src/stm32f7xx_hal_tim.c ****   *          This parameter can be one of the following values:
2175:Drivers/STM32F7xx_HAL_Driver/Src/stm32f7xx_hal_tim.c ****   *            @arg TIM_CHANNEL_1: TIM Channel 1 selected
2176:Drivers/STM32F7xx_HAL_Driver/Src/stm32f7xx_hal_tim.c ****   *            @arg TIM_CHANNEL_2: TIM Channel 2 selected
2177:Drivers/STM32F7xx_HAL_Driver/Src/stm32f7xx_hal_tim.c ****   *            @arg TIM_CHANNEL_3: TIM Channel 3 selected
2178:Drivers/STM32F7xx_HAL_Driver/Src/stm32f7xx_hal_tim.c ****   *            @arg TIM_CHANNEL_4: TIM Channel 4 selected
2179:Drivers/STM32F7xx_HAL_Driver/Src/stm32f7xx_hal_tim.c ****   * @retval HAL status
2180:Drivers/STM32F7xx_HAL_Driver/Src/stm32f7xx_hal_tim.c ****   */
2181:Drivers/STM32F7xx_HAL_Driver/Src/stm32f7xx_hal_tim.c **** HAL_StatusTypeDef HAL_TIM_IC_Stop(TIM_HandleTypeDef *htim, uint32_t Channel)
2182:Drivers/STM32F7xx_HAL_Driver/Src/stm32f7xx_hal_tim.c **** {
2183:Drivers/STM32F7xx_HAL_Driver/Src/stm32f7xx_hal_tim.c ****   /* Check the parameters */
2184:Drivers/STM32F7xx_HAL_Driver/Src/stm32f7xx_hal_tim.c ****   assert_param(IS_TIM_CCX_INSTANCE(htim->Instance, Channel));
2185:Drivers/STM32F7xx_HAL_Driver/Src/stm32f7xx_hal_tim.c **** 
2186:Drivers/STM32F7xx_HAL_Driver/Src/stm32f7xx_hal_tim.c ****   /* Disable the Input Capture channel */
2187:Drivers/STM32F7xx_HAL_Driver/Src/stm32f7xx_hal_tim.c ****   TIM_CCxChannelCmd(htim->Instance, Channel, TIM_CCx_DISABLE);
2188:Drivers/STM32F7xx_HAL_Driver/Src/stm32f7xx_hal_tim.c **** 
2189:Drivers/STM32F7xx_HAL_Driver/Src/stm32f7xx_hal_tim.c ****   /* Disable the Peripheral */
2190:Drivers/STM32F7xx_HAL_Driver/Src/stm32f7xx_hal_tim.c ****   __HAL_TIM_DISABLE(htim);
2191:Drivers/STM32F7xx_HAL_Driver/Src/stm32f7xx_hal_tim.c **** 
2192:Drivers/STM32F7xx_HAL_Driver/Src/stm32f7xx_hal_tim.c ****   /* Set the TIM channel state */
2193:Drivers/STM32F7xx_HAL_Driver/Src/stm32f7xx_hal_tim.c ****   TIM_CHANNEL_STATE_SET(htim, Channel, HAL_TIM_CHANNEL_STATE_READY);
2194:Drivers/STM32F7xx_HAL_Driver/Src/stm32f7xx_hal_tim.c ****   TIM_CHANNEL_N_STATE_SET(htim, Channel, HAL_TIM_CHANNEL_STATE_READY);
2195:Drivers/STM32F7xx_HAL_Driver/Src/stm32f7xx_hal_tim.c **** 
2196:Drivers/STM32F7xx_HAL_Driver/Src/stm32f7xx_hal_tim.c ****   /* Return function status */
2197:Drivers/STM32F7xx_HAL_Driver/Src/stm32f7xx_hal_tim.c ****   return HAL_OK;
2198:Drivers/STM32F7xx_HAL_Driver/Src/stm32f7xx_hal_tim.c **** }
2199:Drivers/STM32F7xx_HAL_Driver/Src/stm32f7xx_hal_tim.c **** 
2200:Drivers/STM32F7xx_HAL_Driver/Src/stm32f7xx_hal_tim.c **** /**
2201:Drivers/STM32F7xx_HAL_Driver/Src/stm32f7xx_hal_tim.c ****   * @brief  Starts the TIM Input Capture measurement in interrupt mode.
2202:Drivers/STM32F7xx_HAL_Driver/Src/stm32f7xx_hal_tim.c ****   * @param  htim TIM Input Capture handle
2203:Drivers/STM32F7xx_HAL_Driver/Src/stm32f7xx_hal_tim.c ****   * @param  Channel TIM Channels to be enabled
2204:Drivers/STM32F7xx_HAL_Driver/Src/stm32f7xx_hal_tim.c ****   *          This parameter can be one of the following values:
2205:Drivers/STM32F7xx_HAL_Driver/Src/stm32f7xx_hal_tim.c ****   *            @arg TIM_CHANNEL_1: TIM Channel 1 selected
2206:Drivers/STM32F7xx_HAL_Driver/Src/stm32f7xx_hal_tim.c ****   *            @arg TIM_CHANNEL_2: TIM Channel 2 selected
2207:Drivers/STM32F7xx_HAL_Driver/Src/stm32f7xx_hal_tim.c ****   *            @arg TIM_CHANNEL_3: TIM Channel 3 selected
2208:Drivers/STM32F7xx_HAL_Driver/Src/stm32f7xx_hal_tim.c ****   *            @arg TIM_CHANNEL_4: TIM Channel 4 selected
2209:Drivers/STM32F7xx_HAL_Driver/Src/stm32f7xx_hal_tim.c ****   * @retval HAL status
2210:Drivers/STM32F7xx_HAL_Driver/Src/stm32f7xx_hal_tim.c ****   */
2211:Drivers/STM32F7xx_HAL_Driver/Src/stm32f7xx_hal_tim.c **** HAL_StatusTypeDef HAL_TIM_IC_Start_IT(TIM_HandleTypeDef *htim, uint32_t Channel)
2212:Drivers/STM32F7xx_HAL_Driver/Src/stm32f7xx_hal_tim.c **** {
2213:Drivers/STM32F7xx_HAL_Driver/Src/stm32f7xx_hal_tim.c ****   HAL_StatusTypeDef status = HAL_OK;
2214:Drivers/STM32F7xx_HAL_Driver/Src/stm32f7xx_hal_tim.c ****   uint32_t tmpsmcr;
ARM GAS  /tmp/ccxnnoCQ.s 			page 43


2215:Drivers/STM32F7xx_HAL_Driver/Src/stm32f7xx_hal_tim.c **** 
2216:Drivers/STM32F7xx_HAL_Driver/Src/stm32f7xx_hal_tim.c ****   HAL_TIM_ChannelStateTypeDef channel_state = TIM_CHANNEL_STATE_GET(htim, Channel);
2217:Drivers/STM32F7xx_HAL_Driver/Src/stm32f7xx_hal_tim.c ****   HAL_TIM_ChannelStateTypeDef complementary_channel_state = TIM_CHANNEL_N_STATE_GET(htim, Channel);
2218:Drivers/STM32F7xx_HAL_Driver/Src/stm32f7xx_hal_tim.c **** 
2219:Drivers/STM32F7xx_HAL_Driver/Src/stm32f7xx_hal_tim.c ****   /* Check the parameters */
2220:Drivers/STM32F7xx_HAL_Driver/Src/stm32f7xx_hal_tim.c ****   assert_param(IS_TIM_CCX_INSTANCE(htim->Instance, Channel));
2221:Drivers/STM32F7xx_HAL_Driver/Src/stm32f7xx_hal_tim.c **** 
2222:Drivers/STM32F7xx_HAL_Driver/Src/stm32f7xx_hal_tim.c ****   /* Check the TIM channel state */
2223:Drivers/STM32F7xx_HAL_Driver/Src/stm32f7xx_hal_tim.c ****   if ((channel_state != HAL_TIM_CHANNEL_STATE_READY)
2224:Drivers/STM32F7xx_HAL_Driver/Src/stm32f7xx_hal_tim.c ****       || (complementary_channel_state != HAL_TIM_CHANNEL_STATE_READY))
2225:Drivers/STM32F7xx_HAL_Driver/Src/stm32f7xx_hal_tim.c ****   {
2226:Drivers/STM32F7xx_HAL_Driver/Src/stm32f7xx_hal_tim.c ****     return HAL_ERROR;
2227:Drivers/STM32F7xx_HAL_Driver/Src/stm32f7xx_hal_tim.c ****   }
2228:Drivers/STM32F7xx_HAL_Driver/Src/stm32f7xx_hal_tim.c **** 
2229:Drivers/STM32F7xx_HAL_Driver/Src/stm32f7xx_hal_tim.c ****   /* Set the TIM channel state */
2230:Drivers/STM32F7xx_HAL_Driver/Src/stm32f7xx_hal_tim.c ****   TIM_CHANNEL_STATE_SET(htim, Channel, HAL_TIM_CHANNEL_STATE_BUSY);
2231:Drivers/STM32F7xx_HAL_Driver/Src/stm32f7xx_hal_tim.c ****   TIM_CHANNEL_N_STATE_SET(htim, Channel, HAL_TIM_CHANNEL_STATE_BUSY);
2232:Drivers/STM32F7xx_HAL_Driver/Src/stm32f7xx_hal_tim.c **** 
2233:Drivers/STM32F7xx_HAL_Driver/Src/stm32f7xx_hal_tim.c ****   switch (Channel)
2234:Drivers/STM32F7xx_HAL_Driver/Src/stm32f7xx_hal_tim.c ****   {
2235:Drivers/STM32F7xx_HAL_Driver/Src/stm32f7xx_hal_tim.c ****     case TIM_CHANNEL_1:
2236:Drivers/STM32F7xx_HAL_Driver/Src/stm32f7xx_hal_tim.c ****     {
2237:Drivers/STM32F7xx_HAL_Driver/Src/stm32f7xx_hal_tim.c ****       /* Enable the TIM Capture/Compare 1 interrupt */
2238:Drivers/STM32F7xx_HAL_Driver/Src/stm32f7xx_hal_tim.c ****       __HAL_TIM_ENABLE_IT(htim, TIM_IT_CC1);
2239:Drivers/STM32F7xx_HAL_Driver/Src/stm32f7xx_hal_tim.c ****       break;
2240:Drivers/STM32F7xx_HAL_Driver/Src/stm32f7xx_hal_tim.c ****     }
2241:Drivers/STM32F7xx_HAL_Driver/Src/stm32f7xx_hal_tim.c **** 
2242:Drivers/STM32F7xx_HAL_Driver/Src/stm32f7xx_hal_tim.c ****     case TIM_CHANNEL_2:
2243:Drivers/STM32F7xx_HAL_Driver/Src/stm32f7xx_hal_tim.c ****     {
2244:Drivers/STM32F7xx_HAL_Driver/Src/stm32f7xx_hal_tim.c ****       /* Enable the TIM Capture/Compare 2 interrupt */
2245:Drivers/STM32F7xx_HAL_Driver/Src/stm32f7xx_hal_tim.c ****       __HAL_TIM_ENABLE_IT(htim, TIM_IT_CC2);
2246:Drivers/STM32F7xx_HAL_Driver/Src/stm32f7xx_hal_tim.c ****       break;
2247:Drivers/STM32F7xx_HAL_Driver/Src/stm32f7xx_hal_tim.c ****     }
2248:Drivers/STM32F7xx_HAL_Driver/Src/stm32f7xx_hal_tim.c **** 
2249:Drivers/STM32F7xx_HAL_Driver/Src/stm32f7xx_hal_tim.c ****     case TIM_CHANNEL_3:
2250:Drivers/STM32F7xx_HAL_Driver/Src/stm32f7xx_hal_tim.c ****     {
2251:Drivers/STM32F7xx_HAL_Driver/Src/stm32f7xx_hal_tim.c ****       /* Enable the TIM Capture/Compare 3 interrupt */
2252:Drivers/STM32F7xx_HAL_Driver/Src/stm32f7xx_hal_tim.c ****       __HAL_TIM_ENABLE_IT(htim, TIM_IT_CC3);
2253:Drivers/STM32F7xx_HAL_Driver/Src/stm32f7xx_hal_tim.c ****       break;
2254:Drivers/STM32F7xx_HAL_Driver/Src/stm32f7xx_hal_tim.c ****     }
2255:Drivers/STM32F7xx_HAL_Driver/Src/stm32f7xx_hal_tim.c **** 
2256:Drivers/STM32F7xx_HAL_Driver/Src/stm32f7xx_hal_tim.c ****     case TIM_CHANNEL_4:
2257:Drivers/STM32F7xx_HAL_Driver/Src/stm32f7xx_hal_tim.c ****     {
2258:Drivers/STM32F7xx_HAL_Driver/Src/stm32f7xx_hal_tim.c ****       /* Enable the TIM Capture/Compare 4 interrupt */
2259:Drivers/STM32F7xx_HAL_Driver/Src/stm32f7xx_hal_tim.c ****       __HAL_TIM_ENABLE_IT(htim, TIM_IT_CC4);
2260:Drivers/STM32F7xx_HAL_Driver/Src/stm32f7xx_hal_tim.c ****       break;
2261:Drivers/STM32F7xx_HAL_Driver/Src/stm32f7xx_hal_tim.c ****     }
2262:Drivers/STM32F7xx_HAL_Driver/Src/stm32f7xx_hal_tim.c **** 
2263:Drivers/STM32F7xx_HAL_Driver/Src/stm32f7xx_hal_tim.c ****     default:
2264:Drivers/STM32F7xx_HAL_Driver/Src/stm32f7xx_hal_tim.c ****       status = HAL_ERROR;
2265:Drivers/STM32F7xx_HAL_Driver/Src/stm32f7xx_hal_tim.c ****       break;
2266:Drivers/STM32F7xx_HAL_Driver/Src/stm32f7xx_hal_tim.c ****   }
2267:Drivers/STM32F7xx_HAL_Driver/Src/stm32f7xx_hal_tim.c **** 
2268:Drivers/STM32F7xx_HAL_Driver/Src/stm32f7xx_hal_tim.c ****   if (status == HAL_OK)
2269:Drivers/STM32F7xx_HAL_Driver/Src/stm32f7xx_hal_tim.c ****   {
2270:Drivers/STM32F7xx_HAL_Driver/Src/stm32f7xx_hal_tim.c ****     /* Enable the Input Capture channel */
2271:Drivers/STM32F7xx_HAL_Driver/Src/stm32f7xx_hal_tim.c ****     TIM_CCxChannelCmd(htim->Instance, Channel, TIM_CCx_ENABLE);
ARM GAS  /tmp/ccxnnoCQ.s 			page 44


2272:Drivers/STM32F7xx_HAL_Driver/Src/stm32f7xx_hal_tim.c **** 
2273:Drivers/STM32F7xx_HAL_Driver/Src/stm32f7xx_hal_tim.c ****     /* Enable the Peripheral, except in trigger mode where enable is automatically done with trigge
2274:Drivers/STM32F7xx_HAL_Driver/Src/stm32f7xx_hal_tim.c ****     if (IS_TIM_SLAVE_INSTANCE(htim->Instance))
2275:Drivers/STM32F7xx_HAL_Driver/Src/stm32f7xx_hal_tim.c ****     {
2276:Drivers/STM32F7xx_HAL_Driver/Src/stm32f7xx_hal_tim.c ****       tmpsmcr = htim->Instance->SMCR & TIM_SMCR_SMS;
2277:Drivers/STM32F7xx_HAL_Driver/Src/stm32f7xx_hal_tim.c ****       if (!IS_TIM_SLAVEMODE_TRIGGER_ENABLED(tmpsmcr))
2278:Drivers/STM32F7xx_HAL_Driver/Src/stm32f7xx_hal_tim.c ****       {
2279:Drivers/STM32F7xx_HAL_Driver/Src/stm32f7xx_hal_tim.c ****         __HAL_TIM_ENABLE(htim);
2280:Drivers/STM32F7xx_HAL_Driver/Src/stm32f7xx_hal_tim.c ****       }
2281:Drivers/STM32F7xx_HAL_Driver/Src/stm32f7xx_hal_tim.c ****     }
2282:Drivers/STM32F7xx_HAL_Driver/Src/stm32f7xx_hal_tim.c ****     else
2283:Drivers/STM32F7xx_HAL_Driver/Src/stm32f7xx_hal_tim.c ****     {
2284:Drivers/STM32F7xx_HAL_Driver/Src/stm32f7xx_hal_tim.c ****       __HAL_TIM_ENABLE(htim);
2285:Drivers/STM32F7xx_HAL_Driver/Src/stm32f7xx_hal_tim.c ****     }
2286:Drivers/STM32F7xx_HAL_Driver/Src/stm32f7xx_hal_tim.c ****   }
2287:Drivers/STM32F7xx_HAL_Driver/Src/stm32f7xx_hal_tim.c **** 
2288:Drivers/STM32F7xx_HAL_Driver/Src/stm32f7xx_hal_tim.c ****   /* Return function status */
2289:Drivers/STM32F7xx_HAL_Driver/Src/stm32f7xx_hal_tim.c ****   return status;
2290:Drivers/STM32F7xx_HAL_Driver/Src/stm32f7xx_hal_tim.c **** }
2291:Drivers/STM32F7xx_HAL_Driver/Src/stm32f7xx_hal_tim.c **** 
2292:Drivers/STM32F7xx_HAL_Driver/Src/stm32f7xx_hal_tim.c **** /**
2293:Drivers/STM32F7xx_HAL_Driver/Src/stm32f7xx_hal_tim.c ****   * @brief  Stops the TIM Input Capture measurement in interrupt mode.
2294:Drivers/STM32F7xx_HAL_Driver/Src/stm32f7xx_hal_tim.c ****   * @param  htim TIM Input Capture handle
2295:Drivers/STM32F7xx_HAL_Driver/Src/stm32f7xx_hal_tim.c ****   * @param  Channel TIM Channels to be disabled
2296:Drivers/STM32F7xx_HAL_Driver/Src/stm32f7xx_hal_tim.c ****   *          This parameter can be one of the following values:
2297:Drivers/STM32F7xx_HAL_Driver/Src/stm32f7xx_hal_tim.c ****   *            @arg TIM_CHANNEL_1: TIM Channel 1 selected
2298:Drivers/STM32F7xx_HAL_Driver/Src/stm32f7xx_hal_tim.c ****   *            @arg TIM_CHANNEL_2: TIM Channel 2 selected
2299:Drivers/STM32F7xx_HAL_Driver/Src/stm32f7xx_hal_tim.c ****   *            @arg TIM_CHANNEL_3: TIM Channel 3 selected
2300:Drivers/STM32F7xx_HAL_Driver/Src/stm32f7xx_hal_tim.c ****   *            @arg TIM_CHANNEL_4: TIM Channel 4 selected
2301:Drivers/STM32F7xx_HAL_Driver/Src/stm32f7xx_hal_tim.c ****   * @retval HAL status
2302:Drivers/STM32F7xx_HAL_Driver/Src/stm32f7xx_hal_tim.c ****   */
2303:Drivers/STM32F7xx_HAL_Driver/Src/stm32f7xx_hal_tim.c **** HAL_StatusTypeDef HAL_TIM_IC_Stop_IT(TIM_HandleTypeDef *htim, uint32_t Channel)
2304:Drivers/STM32F7xx_HAL_Driver/Src/stm32f7xx_hal_tim.c **** {
2305:Drivers/STM32F7xx_HAL_Driver/Src/stm32f7xx_hal_tim.c ****   HAL_StatusTypeDef status = HAL_OK;
2306:Drivers/STM32F7xx_HAL_Driver/Src/stm32f7xx_hal_tim.c **** 
2307:Drivers/STM32F7xx_HAL_Driver/Src/stm32f7xx_hal_tim.c ****   /* Check the parameters */
2308:Drivers/STM32F7xx_HAL_Driver/Src/stm32f7xx_hal_tim.c ****   assert_param(IS_TIM_CCX_INSTANCE(htim->Instance, Channel));
2309:Drivers/STM32F7xx_HAL_Driver/Src/stm32f7xx_hal_tim.c **** 
2310:Drivers/STM32F7xx_HAL_Driver/Src/stm32f7xx_hal_tim.c ****   switch (Channel)
2311:Drivers/STM32F7xx_HAL_Driver/Src/stm32f7xx_hal_tim.c ****   {
2312:Drivers/STM32F7xx_HAL_Driver/Src/stm32f7xx_hal_tim.c ****     case TIM_CHANNEL_1:
2313:Drivers/STM32F7xx_HAL_Driver/Src/stm32f7xx_hal_tim.c ****     {
2314:Drivers/STM32F7xx_HAL_Driver/Src/stm32f7xx_hal_tim.c ****       /* Disable the TIM Capture/Compare 1 interrupt */
2315:Drivers/STM32F7xx_HAL_Driver/Src/stm32f7xx_hal_tim.c ****       __HAL_TIM_DISABLE_IT(htim, TIM_IT_CC1);
2316:Drivers/STM32F7xx_HAL_Driver/Src/stm32f7xx_hal_tim.c ****       break;
2317:Drivers/STM32F7xx_HAL_Driver/Src/stm32f7xx_hal_tim.c ****     }
2318:Drivers/STM32F7xx_HAL_Driver/Src/stm32f7xx_hal_tim.c **** 
2319:Drivers/STM32F7xx_HAL_Driver/Src/stm32f7xx_hal_tim.c ****     case TIM_CHANNEL_2:
2320:Drivers/STM32F7xx_HAL_Driver/Src/stm32f7xx_hal_tim.c ****     {
2321:Drivers/STM32F7xx_HAL_Driver/Src/stm32f7xx_hal_tim.c ****       /* Disable the TIM Capture/Compare 2 interrupt */
2322:Drivers/STM32F7xx_HAL_Driver/Src/stm32f7xx_hal_tim.c ****       __HAL_TIM_DISABLE_IT(htim, TIM_IT_CC2);
2323:Drivers/STM32F7xx_HAL_Driver/Src/stm32f7xx_hal_tim.c ****       break;
2324:Drivers/STM32F7xx_HAL_Driver/Src/stm32f7xx_hal_tim.c ****     }
2325:Drivers/STM32F7xx_HAL_Driver/Src/stm32f7xx_hal_tim.c **** 
2326:Drivers/STM32F7xx_HAL_Driver/Src/stm32f7xx_hal_tim.c ****     case TIM_CHANNEL_3:
2327:Drivers/STM32F7xx_HAL_Driver/Src/stm32f7xx_hal_tim.c ****     {
2328:Drivers/STM32F7xx_HAL_Driver/Src/stm32f7xx_hal_tim.c ****       /* Disable the TIM Capture/Compare 3 interrupt */
ARM GAS  /tmp/ccxnnoCQ.s 			page 45


2329:Drivers/STM32F7xx_HAL_Driver/Src/stm32f7xx_hal_tim.c ****       __HAL_TIM_DISABLE_IT(htim, TIM_IT_CC3);
2330:Drivers/STM32F7xx_HAL_Driver/Src/stm32f7xx_hal_tim.c ****       break;
2331:Drivers/STM32F7xx_HAL_Driver/Src/stm32f7xx_hal_tim.c ****     }
2332:Drivers/STM32F7xx_HAL_Driver/Src/stm32f7xx_hal_tim.c **** 
2333:Drivers/STM32F7xx_HAL_Driver/Src/stm32f7xx_hal_tim.c ****     case TIM_CHANNEL_4:
2334:Drivers/STM32F7xx_HAL_Driver/Src/stm32f7xx_hal_tim.c ****     {
2335:Drivers/STM32F7xx_HAL_Driver/Src/stm32f7xx_hal_tim.c ****       /* Disable the TIM Capture/Compare 4 interrupt */
2336:Drivers/STM32F7xx_HAL_Driver/Src/stm32f7xx_hal_tim.c ****       __HAL_TIM_DISABLE_IT(htim, TIM_IT_CC4);
2337:Drivers/STM32F7xx_HAL_Driver/Src/stm32f7xx_hal_tim.c ****       break;
2338:Drivers/STM32F7xx_HAL_Driver/Src/stm32f7xx_hal_tim.c ****     }
2339:Drivers/STM32F7xx_HAL_Driver/Src/stm32f7xx_hal_tim.c **** 
2340:Drivers/STM32F7xx_HAL_Driver/Src/stm32f7xx_hal_tim.c ****     default:
2341:Drivers/STM32F7xx_HAL_Driver/Src/stm32f7xx_hal_tim.c ****       status = HAL_ERROR;
2342:Drivers/STM32F7xx_HAL_Driver/Src/stm32f7xx_hal_tim.c ****       break;
2343:Drivers/STM32F7xx_HAL_Driver/Src/stm32f7xx_hal_tim.c ****   }
2344:Drivers/STM32F7xx_HAL_Driver/Src/stm32f7xx_hal_tim.c **** 
2345:Drivers/STM32F7xx_HAL_Driver/Src/stm32f7xx_hal_tim.c ****   if (status == HAL_OK)
2346:Drivers/STM32F7xx_HAL_Driver/Src/stm32f7xx_hal_tim.c ****   {
2347:Drivers/STM32F7xx_HAL_Driver/Src/stm32f7xx_hal_tim.c ****     /* Disable the Input Capture channel */
2348:Drivers/STM32F7xx_HAL_Driver/Src/stm32f7xx_hal_tim.c ****     TIM_CCxChannelCmd(htim->Instance, Channel, TIM_CCx_DISABLE);
2349:Drivers/STM32F7xx_HAL_Driver/Src/stm32f7xx_hal_tim.c **** 
2350:Drivers/STM32F7xx_HAL_Driver/Src/stm32f7xx_hal_tim.c ****     /* Disable the Peripheral */
2351:Drivers/STM32F7xx_HAL_Driver/Src/stm32f7xx_hal_tim.c ****     __HAL_TIM_DISABLE(htim);
2352:Drivers/STM32F7xx_HAL_Driver/Src/stm32f7xx_hal_tim.c **** 
2353:Drivers/STM32F7xx_HAL_Driver/Src/stm32f7xx_hal_tim.c ****     /* Set the TIM channel state */
2354:Drivers/STM32F7xx_HAL_Driver/Src/stm32f7xx_hal_tim.c ****     TIM_CHANNEL_STATE_SET(htim, Channel, HAL_TIM_CHANNEL_STATE_READY);
2355:Drivers/STM32F7xx_HAL_Driver/Src/stm32f7xx_hal_tim.c ****     TIM_CHANNEL_N_STATE_SET(htim, Channel, HAL_TIM_CHANNEL_STATE_READY);
2356:Drivers/STM32F7xx_HAL_Driver/Src/stm32f7xx_hal_tim.c ****   }
2357:Drivers/STM32F7xx_HAL_Driver/Src/stm32f7xx_hal_tim.c **** 
2358:Drivers/STM32F7xx_HAL_Driver/Src/stm32f7xx_hal_tim.c ****   /* Return function status */
2359:Drivers/STM32F7xx_HAL_Driver/Src/stm32f7xx_hal_tim.c ****   return status;
2360:Drivers/STM32F7xx_HAL_Driver/Src/stm32f7xx_hal_tim.c **** }
2361:Drivers/STM32F7xx_HAL_Driver/Src/stm32f7xx_hal_tim.c **** 
2362:Drivers/STM32F7xx_HAL_Driver/Src/stm32f7xx_hal_tim.c **** /**
2363:Drivers/STM32F7xx_HAL_Driver/Src/stm32f7xx_hal_tim.c ****   * @brief  Starts the TIM Input Capture measurement in DMA mode.
2364:Drivers/STM32F7xx_HAL_Driver/Src/stm32f7xx_hal_tim.c ****   * @param  htim TIM Input Capture handle
2365:Drivers/STM32F7xx_HAL_Driver/Src/stm32f7xx_hal_tim.c ****   * @param  Channel TIM Channels to be enabled
2366:Drivers/STM32F7xx_HAL_Driver/Src/stm32f7xx_hal_tim.c ****   *          This parameter can be one of the following values:
2367:Drivers/STM32F7xx_HAL_Driver/Src/stm32f7xx_hal_tim.c ****   *            @arg TIM_CHANNEL_1: TIM Channel 1 selected
2368:Drivers/STM32F7xx_HAL_Driver/Src/stm32f7xx_hal_tim.c ****   *            @arg TIM_CHANNEL_2: TIM Channel 2 selected
2369:Drivers/STM32F7xx_HAL_Driver/Src/stm32f7xx_hal_tim.c ****   *            @arg TIM_CHANNEL_3: TIM Channel 3 selected
2370:Drivers/STM32F7xx_HAL_Driver/Src/stm32f7xx_hal_tim.c ****   *            @arg TIM_CHANNEL_4: TIM Channel 4 selected
2371:Drivers/STM32F7xx_HAL_Driver/Src/stm32f7xx_hal_tim.c ****   * @param  pData The destination Buffer address.
2372:Drivers/STM32F7xx_HAL_Driver/Src/stm32f7xx_hal_tim.c ****   * @param  Length The length of data to be transferred from TIM peripheral to memory.
2373:Drivers/STM32F7xx_HAL_Driver/Src/stm32f7xx_hal_tim.c ****   * @retval HAL status
2374:Drivers/STM32F7xx_HAL_Driver/Src/stm32f7xx_hal_tim.c ****   */
2375:Drivers/STM32F7xx_HAL_Driver/Src/stm32f7xx_hal_tim.c **** HAL_StatusTypeDef HAL_TIM_IC_Start_DMA(TIM_HandleTypeDef *htim, uint32_t Channel, uint32_t *pData, 
2376:Drivers/STM32F7xx_HAL_Driver/Src/stm32f7xx_hal_tim.c **** {
2377:Drivers/STM32F7xx_HAL_Driver/Src/stm32f7xx_hal_tim.c ****   HAL_StatusTypeDef status = HAL_OK;
2378:Drivers/STM32F7xx_HAL_Driver/Src/stm32f7xx_hal_tim.c ****   uint32_t tmpsmcr;
2379:Drivers/STM32F7xx_HAL_Driver/Src/stm32f7xx_hal_tim.c **** 
2380:Drivers/STM32F7xx_HAL_Driver/Src/stm32f7xx_hal_tim.c ****   HAL_TIM_ChannelStateTypeDef channel_state = TIM_CHANNEL_STATE_GET(htim, Channel);
2381:Drivers/STM32F7xx_HAL_Driver/Src/stm32f7xx_hal_tim.c ****   HAL_TIM_ChannelStateTypeDef complementary_channel_state = TIM_CHANNEL_N_STATE_GET(htim, Channel);
2382:Drivers/STM32F7xx_HAL_Driver/Src/stm32f7xx_hal_tim.c **** 
2383:Drivers/STM32F7xx_HAL_Driver/Src/stm32f7xx_hal_tim.c ****   /* Check the parameters */
2384:Drivers/STM32F7xx_HAL_Driver/Src/stm32f7xx_hal_tim.c ****   assert_param(IS_TIM_CCX_INSTANCE(htim->Instance, Channel));
2385:Drivers/STM32F7xx_HAL_Driver/Src/stm32f7xx_hal_tim.c ****   assert_param(IS_TIM_DMA_CC_INSTANCE(htim->Instance));
ARM GAS  /tmp/ccxnnoCQ.s 			page 46


2386:Drivers/STM32F7xx_HAL_Driver/Src/stm32f7xx_hal_tim.c **** 
2387:Drivers/STM32F7xx_HAL_Driver/Src/stm32f7xx_hal_tim.c ****   /* Set the TIM channel state */
2388:Drivers/STM32F7xx_HAL_Driver/Src/stm32f7xx_hal_tim.c ****   if ((channel_state == HAL_TIM_CHANNEL_STATE_BUSY)
2389:Drivers/STM32F7xx_HAL_Driver/Src/stm32f7xx_hal_tim.c ****       || (complementary_channel_state == HAL_TIM_CHANNEL_STATE_BUSY))
2390:Drivers/STM32F7xx_HAL_Driver/Src/stm32f7xx_hal_tim.c ****   {
2391:Drivers/STM32F7xx_HAL_Driver/Src/stm32f7xx_hal_tim.c ****     return HAL_BUSY;
2392:Drivers/STM32F7xx_HAL_Driver/Src/stm32f7xx_hal_tim.c ****   }
2393:Drivers/STM32F7xx_HAL_Driver/Src/stm32f7xx_hal_tim.c ****   else if ((channel_state == HAL_TIM_CHANNEL_STATE_READY)
2394:Drivers/STM32F7xx_HAL_Driver/Src/stm32f7xx_hal_tim.c ****            && (complementary_channel_state == HAL_TIM_CHANNEL_STATE_READY))
2395:Drivers/STM32F7xx_HAL_Driver/Src/stm32f7xx_hal_tim.c ****   {
2396:Drivers/STM32F7xx_HAL_Driver/Src/stm32f7xx_hal_tim.c ****     if ((pData == NULL) || (Length == 0U))
2397:Drivers/STM32F7xx_HAL_Driver/Src/stm32f7xx_hal_tim.c ****     {
2398:Drivers/STM32F7xx_HAL_Driver/Src/stm32f7xx_hal_tim.c ****       return HAL_ERROR;
2399:Drivers/STM32F7xx_HAL_Driver/Src/stm32f7xx_hal_tim.c ****     }
2400:Drivers/STM32F7xx_HAL_Driver/Src/stm32f7xx_hal_tim.c ****     else
2401:Drivers/STM32F7xx_HAL_Driver/Src/stm32f7xx_hal_tim.c ****     {
2402:Drivers/STM32F7xx_HAL_Driver/Src/stm32f7xx_hal_tim.c ****       TIM_CHANNEL_STATE_SET(htim, Channel, HAL_TIM_CHANNEL_STATE_BUSY);
2403:Drivers/STM32F7xx_HAL_Driver/Src/stm32f7xx_hal_tim.c ****       TIM_CHANNEL_N_STATE_SET(htim, Channel, HAL_TIM_CHANNEL_STATE_BUSY);
2404:Drivers/STM32F7xx_HAL_Driver/Src/stm32f7xx_hal_tim.c ****     }
2405:Drivers/STM32F7xx_HAL_Driver/Src/stm32f7xx_hal_tim.c ****   }
2406:Drivers/STM32F7xx_HAL_Driver/Src/stm32f7xx_hal_tim.c ****   else
2407:Drivers/STM32F7xx_HAL_Driver/Src/stm32f7xx_hal_tim.c ****   {
2408:Drivers/STM32F7xx_HAL_Driver/Src/stm32f7xx_hal_tim.c ****     return HAL_ERROR;
2409:Drivers/STM32F7xx_HAL_Driver/Src/stm32f7xx_hal_tim.c ****   }
2410:Drivers/STM32F7xx_HAL_Driver/Src/stm32f7xx_hal_tim.c **** 
2411:Drivers/STM32F7xx_HAL_Driver/Src/stm32f7xx_hal_tim.c ****   /* Enable the Input Capture channel */
2412:Drivers/STM32F7xx_HAL_Driver/Src/stm32f7xx_hal_tim.c ****   TIM_CCxChannelCmd(htim->Instance, Channel, TIM_CCx_ENABLE);
2413:Drivers/STM32F7xx_HAL_Driver/Src/stm32f7xx_hal_tim.c **** 
2414:Drivers/STM32F7xx_HAL_Driver/Src/stm32f7xx_hal_tim.c ****   switch (Channel)
2415:Drivers/STM32F7xx_HAL_Driver/Src/stm32f7xx_hal_tim.c ****   {
2416:Drivers/STM32F7xx_HAL_Driver/Src/stm32f7xx_hal_tim.c ****     case TIM_CHANNEL_1:
2417:Drivers/STM32F7xx_HAL_Driver/Src/stm32f7xx_hal_tim.c ****     {
2418:Drivers/STM32F7xx_HAL_Driver/Src/stm32f7xx_hal_tim.c ****       /* Set the DMA capture callbacks */
2419:Drivers/STM32F7xx_HAL_Driver/Src/stm32f7xx_hal_tim.c ****       htim->hdma[TIM_DMA_ID_CC1]->XferCpltCallback = TIM_DMACaptureCplt;
2420:Drivers/STM32F7xx_HAL_Driver/Src/stm32f7xx_hal_tim.c ****       htim->hdma[TIM_DMA_ID_CC1]->XferHalfCpltCallback = TIM_DMACaptureHalfCplt;
2421:Drivers/STM32F7xx_HAL_Driver/Src/stm32f7xx_hal_tim.c **** 
2422:Drivers/STM32F7xx_HAL_Driver/Src/stm32f7xx_hal_tim.c ****       /* Set the DMA error callback */
2423:Drivers/STM32F7xx_HAL_Driver/Src/stm32f7xx_hal_tim.c ****       htim->hdma[TIM_DMA_ID_CC1]->XferErrorCallback = TIM_DMAError ;
2424:Drivers/STM32F7xx_HAL_Driver/Src/stm32f7xx_hal_tim.c **** 
2425:Drivers/STM32F7xx_HAL_Driver/Src/stm32f7xx_hal_tim.c ****       /* Enable the DMA stream */
2426:Drivers/STM32F7xx_HAL_Driver/Src/stm32f7xx_hal_tim.c ****       if (HAL_DMA_Start_IT(htim->hdma[TIM_DMA_ID_CC1], (uint32_t)&htim->Instance->CCR1, (uint32_t)p
2427:Drivers/STM32F7xx_HAL_Driver/Src/stm32f7xx_hal_tim.c ****                            Length) != HAL_OK)
2428:Drivers/STM32F7xx_HAL_Driver/Src/stm32f7xx_hal_tim.c ****       {
2429:Drivers/STM32F7xx_HAL_Driver/Src/stm32f7xx_hal_tim.c ****         /* Return error status */
2430:Drivers/STM32F7xx_HAL_Driver/Src/stm32f7xx_hal_tim.c ****         return HAL_ERROR;
2431:Drivers/STM32F7xx_HAL_Driver/Src/stm32f7xx_hal_tim.c ****       }
2432:Drivers/STM32F7xx_HAL_Driver/Src/stm32f7xx_hal_tim.c ****       /* Enable the TIM Capture/Compare 1 DMA request */
2433:Drivers/STM32F7xx_HAL_Driver/Src/stm32f7xx_hal_tim.c ****       __HAL_TIM_ENABLE_DMA(htim, TIM_DMA_CC1);
2434:Drivers/STM32F7xx_HAL_Driver/Src/stm32f7xx_hal_tim.c ****       break;
2435:Drivers/STM32F7xx_HAL_Driver/Src/stm32f7xx_hal_tim.c ****     }
2436:Drivers/STM32F7xx_HAL_Driver/Src/stm32f7xx_hal_tim.c **** 
2437:Drivers/STM32F7xx_HAL_Driver/Src/stm32f7xx_hal_tim.c ****     case TIM_CHANNEL_2:
2438:Drivers/STM32F7xx_HAL_Driver/Src/stm32f7xx_hal_tim.c ****     {
2439:Drivers/STM32F7xx_HAL_Driver/Src/stm32f7xx_hal_tim.c ****       /* Set the DMA capture callbacks */
2440:Drivers/STM32F7xx_HAL_Driver/Src/stm32f7xx_hal_tim.c ****       htim->hdma[TIM_DMA_ID_CC2]->XferCpltCallback = TIM_DMACaptureCplt;
2441:Drivers/STM32F7xx_HAL_Driver/Src/stm32f7xx_hal_tim.c ****       htim->hdma[TIM_DMA_ID_CC2]->XferHalfCpltCallback = TIM_DMACaptureHalfCplt;
2442:Drivers/STM32F7xx_HAL_Driver/Src/stm32f7xx_hal_tim.c **** 
ARM GAS  /tmp/ccxnnoCQ.s 			page 47


2443:Drivers/STM32F7xx_HAL_Driver/Src/stm32f7xx_hal_tim.c ****       /* Set the DMA error callback */
2444:Drivers/STM32F7xx_HAL_Driver/Src/stm32f7xx_hal_tim.c ****       htim->hdma[TIM_DMA_ID_CC2]->XferErrorCallback = TIM_DMAError ;
2445:Drivers/STM32F7xx_HAL_Driver/Src/stm32f7xx_hal_tim.c **** 
2446:Drivers/STM32F7xx_HAL_Driver/Src/stm32f7xx_hal_tim.c ****       /* Enable the DMA stream */
2447:Drivers/STM32F7xx_HAL_Driver/Src/stm32f7xx_hal_tim.c ****       if (HAL_DMA_Start_IT(htim->hdma[TIM_DMA_ID_CC2], (uint32_t)&htim->Instance->CCR2, (uint32_t)p
2448:Drivers/STM32F7xx_HAL_Driver/Src/stm32f7xx_hal_tim.c ****                            Length) != HAL_OK)
2449:Drivers/STM32F7xx_HAL_Driver/Src/stm32f7xx_hal_tim.c ****       {
2450:Drivers/STM32F7xx_HAL_Driver/Src/stm32f7xx_hal_tim.c ****         /* Return error status */
2451:Drivers/STM32F7xx_HAL_Driver/Src/stm32f7xx_hal_tim.c ****         return HAL_ERROR;
2452:Drivers/STM32F7xx_HAL_Driver/Src/stm32f7xx_hal_tim.c ****       }
2453:Drivers/STM32F7xx_HAL_Driver/Src/stm32f7xx_hal_tim.c ****       /* Enable the TIM Capture/Compare 2  DMA request */
2454:Drivers/STM32F7xx_HAL_Driver/Src/stm32f7xx_hal_tim.c ****       __HAL_TIM_ENABLE_DMA(htim, TIM_DMA_CC2);
2455:Drivers/STM32F7xx_HAL_Driver/Src/stm32f7xx_hal_tim.c ****       break;
2456:Drivers/STM32F7xx_HAL_Driver/Src/stm32f7xx_hal_tim.c ****     }
2457:Drivers/STM32F7xx_HAL_Driver/Src/stm32f7xx_hal_tim.c **** 
2458:Drivers/STM32F7xx_HAL_Driver/Src/stm32f7xx_hal_tim.c ****     case TIM_CHANNEL_3:
2459:Drivers/STM32F7xx_HAL_Driver/Src/stm32f7xx_hal_tim.c ****     {
2460:Drivers/STM32F7xx_HAL_Driver/Src/stm32f7xx_hal_tim.c ****       /* Set the DMA capture callbacks */
2461:Drivers/STM32F7xx_HAL_Driver/Src/stm32f7xx_hal_tim.c ****       htim->hdma[TIM_DMA_ID_CC3]->XferCpltCallback = TIM_DMACaptureCplt;
2462:Drivers/STM32F7xx_HAL_Driver/Src/stm32f7xx_hal_tim.c ****       htim->hdma[TIM_DMA_ID_CC3]->XferHalfCpltCallback = TIM_DMACaptureHalfCplt;
2463:Drivers/STM32F7xx_HAL_Driver/Src/stm32f7xx_hal_tim.c **** 
2464:Drivers/STM32F7xx_HAL_Driver/Src/stm32f7xx_hal_tim.c ****       /* Set the DMA error callback */
2465:Drivers/STM32F7xx_HAL_Driver/Src/stm32f7xx_hal_tim.c ****       htim->hdma[TIM_DMA_ID_CC3]->XferErrorCallback = TIM_DMAError ;
2466:Drivers/STM32F7xx_HAL_Driver/Src/stm32f7xx_hal_tim.c **** 
2467:Drivers/STM32F7xx_HAL_Driver/Src/stm32f7xx_hal_tim.c ****       /* Enable the DMA stream */
2468:Drivers/STM32F7xx_HAL_Driver/Src/stm32f7xx_hal_tim.c ****       if (HAL_DMA_Start_IT(htim->hdma[TIM_DMA_ID_CC3], (uint32_t)&htim->Instance->CCR3, (uint32_t)p
2469:Drivers/STM32F7xx_HAL_Driver/Src/stm32f7xx_hal_tim.c ****                            Length) != HAL_OK)
2470:Drivers/STM32F7xx_HAL_Driver/Src/stm32f7xx_hal_tim.c ****       {
2471:Drivers/STM32F7xx_HAL_Driver/Src/stm32f7xx_hal_tim.c ****         /* Return error status */
2472:Drivers/STM32F7xx_HAL_Driver/Src/stm32f7xx_hal_tim.c ****         return HAL_ERROR;
2473:Drivers/STM32F7xx_HAL_Driver/Src/stm32f7xx_hal_tim.c ****       }
2474:Drivers/STM32F7xx_HAL_Driver/Src/stm32f7xx_hal_tim.c ****       /* Enable the TIM Capture/Compare 3  DMA request */
2475:Drivers/STM32F7xx_HAL_Driver/Src/stm32f7xx_hal_tim.c ****       __HAL_TIM_ENABLE_DMA(htim, TIM_DMA_CC3);
2476:Drivers/STM32F7xx_HAL_Driver/Src/stm32f7xx_hal_tim.c ****       break;
2477:Drivers/STM32F7xx_HAL_Driver/Src/stm32f7xx_hal_tim.c ****     }
2478:Drivers/STM32F7xx_HAL_Driver/Src/stm32f7xx_hal_tim.c **** 
2479:Drivers/STM32F7xx_HAL_Driver/Src/stm32f7xx_hal_tim.c ****     case TIM_CHANNEL_4:
2480:Drivers/STM32F7xx_HAL_Driver/Src/stm32f7xx_hal_tim.c ****     {
2481:Drivers/STM32F7xx_HAL_Driver/Src/stm32f7xx_hal_tim.c ****       /* Set the DMA capture callbacks */
2482:Drivers/STM32F7xx_HAL_Driver/Src/stm32f7xx_hal_tim.c ****       htim->hdma[TIM_DMA_ID_CC4]->XferCpltCallback = TIM_DMACaptureCplt;
2483:Drivers/STM32F7xx_HAL_Driver/Src/stm32f7xx_hal_tim.c ****       htim->hdma[TIM_DMA_ID_CC4]->XferHalfCpltCallback = TIM_DMACaptureHalfCplt;
2484:Drivers/STM32F7xx_HAL_Driver/Src/stm32f7xx_hal_tim.c **** 
2485:Drivers/STM32F7xx_HAL_Driver/Src/stm32f7xx_hal_tim.c ****       /* Set the DMA error callback */
2486:Drivers/STM32F7xx_HAL_Driver/Src/stm32f7xx_hal_tim.c ****       htim->hdma[TIM_DMA_ID_CC4]->XferErrorCallback = TIM_DMAError ;
2487:Drivers/STM32F7xx_HAL_Driver/Src/stm32f7xx_hal_tim.c **** 
2488:Drivers/STM32F7xx_HAL_Driver/Src/stm32f7xx_hal_tim.c ****       /* Enable the DMA stream */
2489:Drivers/STM32F7xx_HAL_Driver/Src/stm32f7xx_hal_tim.c ****       if (HAL_DMA_Start_IT(htim->hdma[TIM_DMA_ID_CC4], (uint32_t)&htim->Instance->CCR4, (uint32_t)p
2490:Drivers/STM32F7xx_HAL_Driver/Src/stm32f7xx_hal_tim.c ****                            Length) != HAL_OK)
2491:Drivers/STM32F7xx_HAL_Driver/Src/stm32f7xx_hal_tim.c ****       {
2492:Drivers/STM32F7xx_HAL_Driver/Src/stm32f7xx_hal_tim.c ****         /* Return error status */
2493:Drivers/STM32F7xx_HAL_Driver/Src/stm32f7xx_hal_tim.c ****         return HAL_ERROR;
2494:Drivers/STM32F7xx_HAL_Driver/Src/stm32f7xx_hal_tim.c ****       }
2495:Drivers/STM32F7xx_HAL_Driver/Src/stm32f7xx_hal_tim.c ****       /* Enable the TIM Capture/Compare 4  DMA request */
2496:Drivers/STM32F7xx_HAL_Driver/Src/stm32f7xx_hal_tim.c ****       __HAL_TIM_ENABLE_DMA(htim, TIM_DMA_CC4);
2497:Drivers/STM32F7xx_HAL_Driver/Src/stm32f7xx_hal_tim.c ****       break;
2498:Drivers/STM32F7xx_HAL_Driver/Src/stm32f7xx_hal_tim.c ****     }
2499:Drivers/STM32F7xx_HAL_Driver/Src/stm32f7xx_hal_tim.c **** 
ARM GAS  /tmp/ccxnnoCQ.s 			page 48


2500:Drivers/STM32F7xx_HAL_Driver/Src/stm32f7xx_hal_tim.c ****     default:
2501:Drivers/STM32F7xx_HAL_Driver/Src/stm32f7xx_hal_tim.c ****       status = HAL_ERROR;
2502:Drivers/STM32F7xx_HAL_Driver/Src/stm32f7xx_hal_tim.c ****       break;
2503:Drivers/STM32F7xx_HAL_Driver/Src/stm32f7xx_hal_tim.c ****   }
2504:Drivers/STM32F7xx_HAL_Driver/Src/stm32f7xx_hal_tim.c **** 
2505:Drivers/STM32F7xx_HAL_Driver/Src/stm32f7xx_hal_tim.c ****   /* Enable the Peripheral, except in trigger mode where enable is automatically done with trigger 
2506:Drivers/STM32F7xx_HAL_Driver/Src/stm32f7xx_hal_tim.c ****   if (IS_TIM_SLAVE_INSTANCE(htim->Instance))
2507:Drivers/STM32F7xx_HAL_Driver/Src/stm32f7xx_hal_tim.c ****   {
2508:Drivers/STM32F7xx_HAL_Driver/Src/stm32f7xx_hal_tim.c ****     tmpsmcr = htim->Instance->SMCR & TIM_SMCR_SMS;
2509:Drivers/STM32F7xx_HAL_Driver/Src/stm32f7xx_hal_tim.c ****     if (!IS_TIM_SLAVEMODE_TRIGGER_ENABLED(tmpsmcr))
2510:Drivers/STM32F7xx_HAL_Driver/Src/stm32f7xx_hal_tim.c ****     {
2511:Drivers/STM32F7xx_HAL_Driver/Src/stm32f7xx_hal_tim.c ****       __HAL_TIM_ENABLE(htim);
2512:Drivers/STM32F7xx_HAL_Driver/Src/stm32f7xx_hal_tim.c ****     }
2513:Drivers/STM32F7xx_HAL_Driver/Src/stm32f7xx_hal_tim.c ****   }
2514:Drivers/STM32F7xx_HAL_Driver/Src/stm32f7xx_hal_tim.c ****   else
2515:Drivers/STM32F7xx_HAL_Driver/Src/stm32f7xx_hal_tim.c ****   {
2516:Drivers/STM32F7xx_HAL_Driver/Src/stm32f7xx_hal_tim.c ****     __HAL_TIM_ENABLE(htim);
2517:Drivers/STM32F7xx_HAL_Driver/Src/stm32f7xx_hal_tim.c ****   }
2518:Drivers/STM32F7xx_HAL_Driver/Src/stm32f7xx_hal_tim.c **** 
2519:Drivers/STM32F7xx_HAL_Driver/Src/stm32f7xx_hal_tim.c ****   /* Return function status */
2520:Drivers/STM32F7xx_HAL_Driver/Src/stm32f7xx_hal_tim.c ****   return status;
2521:Drivers/STM32F7xx_HAL_Driver/Src/stm32f7xx_hal_tim.c **** }
2522:Drivers/STM32F7xx_HAL_Driver/Src/stm32f7xx_hal_tim.c **** 
2523:Drivers/STM32F7xx_HAL_Driver/Src/stm32f7xx_hal_tim.c **** /**
2524:Drivers/STM32F7xx_HAL_Driver/Src/stm32f7xx_hal_tim.c ****   * @brief  Stops the TIM Input Capture measurement in DMA mode.
2525:Drivers/STM32F7xx_HAL_Driver/Src/stm32f7xx_hal_tim.c ****   * @param  htim TIM Input Capture handle
2526:Drivers/STM32F7xx_HAL_Driver/Src/stm32f7xx_hal_tim.c ****   * @param  Channel TIM Channels to be disabled
2527:Drivers/STM32F7xx_HAL_Driver/Src/stm32f7xx_hal_tim.c ****   *          This parameter can be one of the following values:
2528:Drivers/STM32F7xx_HAL_Driver/Src/stm32f7xx_hal_tim.c ****   *            @arg TIM_CHANNEL_1: TIM Channel 1 selected
2529:Drivers/STM32F7xx_HAL_Driver/Src/stm32f7xx_hal_tim.c ****   *            @arg TIM_CHANNEL_2: TIM Channel 2 selected
2530:Drivers/STM32F7xx_HAL_Driver/Src/stm32f7xx_hal_tim.c ****   *            @arg TIM_CHANNEL_3: TIM Channel 3 selected
2531:Drivers/STM32F7xx_HAL_Driver/Src/stm32f7xx_hal_tim.c ****   *            @arg TIM_CHANNEL_4: TIM Channel 4 selected
2532:Drivers/STM32F7xx_HAL_Driver/Src/stm32f7xx_hal_tim.c ****   * @retval HAL status
2533:Drivers/STM32F7xx_HAL_Driver/Src/stm32f7xx_hal_tim.c ****   */
2534:Drivers/STM32F7xx_HAL_Driver/Src/stm32f7xx_hal_tim.c **** HAL_StatusTypeDef HAL_TIM_IC_Stop_DMA(TIM_HandleTypeDef *htim, uint32_t Channel)
2535:Drivers/STM32F7xx_HAL_Driver/Src/stm32f7xx_hal_tim.c **** {
2536:Drivers/STM32F7xx_HAL_Driver/Src/stm32f7xx_hal_tim.c ****   HAL_StatusTypeDef status = HAL_OK;
2537:Drivers/STM32F7xx_HAL_Driver/Src/stm32f7xx_hal_tim.c **** 
2538:Drivers/STM32F7xx_HAL_Driver/Src/stm32f7xx_hal_tim.c ****   /* Check the parameters */
2539:Drivers/STM32F7xx_HAL_Driver/Src/stm32f7xx_hal_tim.c ****   assert_param(IS_TIM_CCX_INSTANCE(htim->Instance, Channel));
2540:Drivers/STM32F7xx_HAL_Driver/Src/stm32f7xx_hal_tim.c ****   assert_param(IS_TIM_DMA_CC_INSTANCE(htim->Instance));
2541:Drivers/STM32F7xx_HAL_Driver/Src/stm32f7xx_hal_tim.c **** 
2542:Drivers/STM32F7xx_HAL_Driver/Src/stm32f7xx_hal_tim.c ****   /* Disable the Input Capture channel */
2543:Drivers/STM32F7xx_HAL_Driver/Src/stm32f7xx_hal_tim.c ****   TIM_CCxChannelCmd(htim->Instance, Channel, TIM_CCx_DISABLE);
2544:Drivers/STM32F7xx_HAL_Driver/Src/stm32f7xx_hal_tim.c **** 
2545:Drivers/STM32F7xx_HAL_Driver/Src/stm32f7xx_hal_tim.c ****   switch (Channel)
2546:Drivers/STM32F7xx_HAL_Driver/Src/stm32f7xx_hal_tim.c ****   {
2547:Drivers/STM32F7xx_HAL_Driver/Src/stm32f7xx_hal_tim.c ****     case TIM_CHANNEL_1:
2548:Drivers/STM32F7xx_HAL_Driver/Src/stm32f7xx_hal_tim.c ****     {
2549:Drivers/STM32F7xx_HAL_Driver/Src/stm32f7xx_hal_tim.c ****       /* Disable the TIM Capture/Compare 1 DMA request */
2550:Drivers/STM32F7xx_HAL_Driver/Src/stm32f7xx_hal_tim.c ****       __HAL_TIM_DISABLE_DMA(htim, TIM_DMA_CC1);
2551:Drivers/STM32F7xx_HAL_Driver/Src/stm32f7xx_hal_tim.c ****       (void)HAL_DMA_Abort_IT(htim->hdma[TIM_DMA_ID_CC1]);
2552:Drivers/STM32F7xx_HAL_Driver/Src/stm32f7xx_hal_tim.c ****       break;
2553:Drivers/STM32F7xx_HAL_Driver/Src/stm32f7xx_hal_tim.c ****     }
2554:Drivers/STM32F7xx_HAL_Driver/Src/stm32f7xx_hal_tim.c **** 
2555:Drivers/STM32F7xx_HAL_Driver/Src/stm32f7xx_hal_tim.c ****     case TIM_CHANNEL_2:
2556:Drivers/STM32F7xx_HAL_Driver/Src/stm32f7xx_hal_tim.c ****     {
ARM GAS  /tmp/ccxnnoCQ.s 			page 49


2557:Drivers/STM32F7xx_HAL_Driver/Src/stm32f7xx_hal_tim.c ****       /* Disable the TIM Capture/Compare 2 DMA request */
2558:Drivers/STM32F7xx_HAL_Driver/Src/stm32f7xx_hal_tim.c ****       __HAL_TIM_DISABLE_DMA(htim, TIM_DMA_CC2);
2559:Drivers/STM32F7xx_HAL_Driver/Src/stm32f7xx_hal_tim.c ****       (void)HAL_DMA_Abort_IT(htim->hdma[TIM_DMA_ID_CC2]);
2560:Drivers/STM32F7xx_HAL_Driver/Src/stm32f7xx_hal_tim.c ****       break;
2561:Drivers/STM32F7xx_HAL_Driver/Src/stm32f7xx_hal_tim.c ****     }
2562:Drivers/STM32F7xx_HAL_Driver/Src/stm32f7xx_hal_tim.c **** 
2563:Drivers/STM32F7xx_HAL_Driver/Src/stm32f7xx_hal_tim.c ****     case TIM_CHANNEL_3:
2564:Drivers/STM32F7xx_HAL_Driver/Src/stm32f7xx_hal_tim.c ****     {
